---
triple:          'arm64-apple-darwin'
binary-path:     main
relocations:
  - { offsetInCU: 0x37, offset: 0x37, size: 0x8, addend: 0x0, symName: _vectorBody, symObjAddr: 0x289F0, symBinAddr: 0x100010000, symSize: 0x0 }
  - { offsetInCU: 0x5BCD, offset: 0x5BCD, size: 0x8, addend: 0x0, symName: __ZNSt3__1eqB8ue170006IcNS_11char_traitsIcEENS_9allocatorIcEEEEbRKNS_12basic_stringIT_T0_T1_EEPKS6_, symObjAddr: 0x11C0, symBinAddr: 0x1000052D0, symSize: 0xAC }
  - { offsetInCU: 0x5C34, offset: 0x5C34, size: 0x8, addend: 0x0, symName: __ZNSt3__112__to_addressB8ue170006I4bodyEEPT_S3_, symObjAddr: 0x1AAC, symBinAddr: 0x100005BBC, symSize: 0x14 }
  - { offsetInCU: 0x5C69, offset: 0x5C69, size: 0x8, addend: 0x0, symName: __ZNSt3__119__libcpp_deallocateB8ue170006EPvmm, symObjAddr: 0x1B74, symBinAddr: 0x100005C84, symSize: 0x30 }
  - { offsetInCU: 0x5CB1, offset: 0x5CB1, size: 0x8, addend: 0x0, symName: __ZNSt3__127__do_deallocate_handle_sizeB8ue170006IJEEEvPvmDpT_, symObjAddr: 0x1BA4, symBinAddr: 0x100005CB4, symSize: 0x28 }
  - { offsetInCU: 0x5CEF, offset: 0x5CEF, size: 0x8, addend: 0x0, symName: __ZNSt3__124__libcpp_operator_deleteB8ue170006IJPvEEEvDpT_, symObjAddr: 0x1BCC, symBinAddr: 0x100005CDC, symSize: 0x24 }
  - { offsetInCU: 0x5D24, offset: 0x5D24, size: 0x8, addend: 0x0, symName: __ZNSt3__112__to_addressB8ue170006I10posChangedEEPT_S3_, symObjAddr: 0x2134, symBinAddr: 0x100006244, symSize: 0x14 }
  - { offsetInCU: 0x5D59, offset: 0x5D59, size: 0x8, addend: 0x0, symName: __ZNSt3__118__constexpr_strlenB8ue170006EPKc, symObjAddr: 0x23A0, symBinAddr: 0x1000064B0, symSize: 0x24 }
  - { offsetInCU: 0x5D85, offset: 0x5D85, size: 0x8, addend: 0x0, symName: __ZNSt3__13maxB8ue170006ImEERKT_S3_S3_, symObjAddr: 0x2974, symBinAddr: 0x100006A84, symSize: 0x2C }
  - { offsetInCU: 0x5DC8, offset: 0x5DC8, size: 0x8, addend: 0x0, symName: __ZNSt3__13minB8ue170006ImEERKT_S3_S3_, symObjAddr: 0x29A0, symBinAddr: 0x100006AB0, symSize: 0x2C }
  - { offsetInCU: 0x600C, offset: 0x600C, size: 0x8, addend: 0x0, symName: __ZNSt3__13minB8ue170006ImNS_6__lessIvvEEEERKT_S5_S5_T0_, symObjAddr: 0x2A2C, symBinAddr: 0x100006B3C, symSize: 0x54 }
  - { offsetInCU: 0x60AB, offset: 0x60AB, size: 0x8, addend: 0x0, symName: __ZNSt3__120__throw_length_errorB8ue170006EPKc, symObjAddr: 0x2B0C, symBinAddr: 0x100006C1C, symSize: 0x64 }
  - { offsetInCU: 0x60D5, offset: 0x60D5, size: 0x8, addend: 0x0, symName: __ZNSt3__13maxB8ue170006ImNS_6__lessIvvEEEERKT_S5_S5_T0_, symObjAddr: 0x2BF0, symBinAddr: 0x100006D00, symSize: 0x54 }
  - { offsetInCU: 0x612F, offset: 0x612F, size: 0x8, addend: 0x0, symName: __ZNSt3__119__allocate_at_leastB8ue170006INS_9allocatorI4bodyEEEENS_19__allocation_resultINS_16allocator_traitsIT_E7pointerEEERS6_m, symObjAddr: 0x2D60, symBinAddr: 0x100006E70, symSize: 0x40 }
  - { offsetInCU: 0x6172, offset: 0x6172, size: 0x8, addend: 0x0, symName: __ZNSt3__117__libcpp_allocateB8ue170006Emm, symObjAddr: 0x2EE8, symBinAddr: 0x100006FF8, symSize: 0x28 }
  - { offsetInCU: 0x61AF, offset: 0x61AF, size: 0x8, addend: 0x0, symName: __ZNSt3__121__libcpp_operator_newB8ue170006IJmEEEPvDpT_, symObjAddr: 0x2F10, symBinAddr: 0x100007020, symSize: 0x24 }
  - { offsetInCU: 0x61E8, offset: 0x61E8, size: 0x8, addend: 0x0, symName: __ZNSt3__142__uninitialized_allocator_move_if_noexceptB8ue170006INS_9allocatorI4bodyEENS_16reverse_iteratorIPS2_EES6_S6_EET2_RT_T0_T1_S7_, symObjAddr: 0x2F98, symBinAddr: 0x1000070A8, symSize: 0x12C }
  - { offsetInCU: 0x6288, offset: 0x6288, size: 0x8, addend: 0x0, symName: __ZNSt3__14swapB8ue170006IP4bodyEENS_9enable_ifIXaasr21is_move_constructibleIT_EE5valuesr18is_move_assignableIS4_EE5valueEvE4typeERS4_S7_, symObjAddr: 0x3110, symBinAddr: 0x100007220, symSize: 0x3C }
  - { offsetInCU: 0x62D9, offset: 0x62D9, size: 0x8, addend: 0x0, symName: __ZNSt3__122__make_exception_guardB8ue170006INS_29_AllocatorDestroyRangeReverseINS_9allocatorI4bodyEENS_16reverse_iteratorIPS3_EEEEEENS_28__exception_guard_exceptionsIT_EESA_, symObjAddr: 0x3214, symBinAddr: 0x100007324, symSize: 0x4C }
  - { offsetInCU: 0x630F, offset: 0x630F, size: 0x8, addend: 0x0, symName: __ZNSt3__1neB8ue170006IP4bodyS2_EEbRKNS_16reverse_iteratorIT_EERKNS3_IT0_EE, symObjAddr: 0x32A4, symBinAddr: 0x1000073B4, symSize: 0x48 }
  - { offsetInCU: 0x635B, offset: 0x635B, size: 0x8, addend: 0x0, symName: __ZNSt3__112__to_addressB8ue170006INS_16reverse_iteratorIP4bodyEEvEEu7__decayIDTclsr19__to_address_helperIT_EE6__callclsr3stdE7declvalIRKS5_EEEEES7_, symObjAddr: 0x3320, symBinAddr: 0x100007430, symSize: 0x24 }
  - { offsetInCU: 0x63BA, offset: 0x63BA, size: 0x8, addend: 0x0, symName: __ZNSt3__119__allocator_destroyB8ue170006INS_9allocatorI4bodyEENS_16reverse_iteratorINS4_IPS2_EEEES7_EEvRT_T0_T1_, symObjAddr: 0x36F8, symBinAddr: 0x100007808, symSize: 0x70 }
  - { offsetInCU: 0x641F, offset: 0x641F, size: 0x8, addend: 0x0, symName: __ZNSt3__1neB8ue170006INS_16reverse_iteratorIP4bodyEES4_EEbRKNS1_IT_EERKNS1_IT0_EE, symObjAddr: 0x37A4, symBinAddr: 0x1000078B4, symSize: 0x60 }
  - { offsetInCU: 0x646B, offset: 0x646B, size: 0x8, addend: 0x0, symName: __ZNSt3__112__to_addressB8ue170006INS_16reverse_iteratorINS1_IP4bodyEEEEvEEu7__decayIDTclsr19__to_address_helperIT_EE6__callclsr3stdE7declvalIRKS6_EEEEES8_, symObjAddr: 0x3804, symBinAddr: 0x100007914, symSize: 0x24 }
  - { offsetInCU: 0x6733, offset: 0x6733, size: 0x8, addend: 0x0, symName: __ZSt28__throw_bad_array_new_lengthB8ue170006v, symObjAddr: 0x2EB4, symBinAddr: 0x100006FC4, symSize: 0x34 }
  - { offsetInCU: 0x6B2D, offset: 0x6B2D, size: 0x8, addend: 0x0, symName: _vectorPosChanged, symObjAddr: 0x28A08, symBinAddr: 0x100010018, symSize: 0x0 }
  - { offsetInCU: 0x7385, offset: 0x7385, size: 0x8, addend: 0x0, symName: __ZNSt3__16vectorI4bodyNS_9allocatorIS1_EEE26__swap_out_circular_bufferERNS_14__split_bufferIS1_RS3_EE, symObjAddr: 0x27BC, symBinAddr: 0x1000068CC, symSize: 0x110 }
  - { offsetInCU: 0x9688, offset: 0x9688, size: 0x8, addend: 0x0, symName: __ZNSt3__16vectorI4bodyNS_9allocatorIS1_EEEC1B8ue170006Ev, symObjAddr: 0x0, symBinAddr: 0x100004110, symSize: 0x2C }
  - { offsetInCU: 0x96B0, offset: 0x96B0, size: 0x8, addend: 0x0, symName: __ZNSt3__16vectorI4bodyNS_9allocatorIS1_EEED1B8ue170006Ev, symObjAddr: 0x2C, symBinAddr: 0x10000413C, symSize: 0x2C }
  - { offsetInCU: 0x96D8, offset: 0x96D8, size: 0x8, addend: 0x0, symName: __ZNSt3__16vectorI10posChangedNS_9allocatorIS1_EEEC1B8ue170006Ev, symObjAddr: 0x58, symBinAddr: 0x100004168, symSize: 0x2C }
  - { offsetInCU: 0x9700, offset: 0x9700, size: 0x8, addend: 0x0, symName: __ZNSt3__16vectorI10posChangedNS_9allocatorIS1_EEED1B8ue170006Ev, symObjAddr: 0x84, symBinAddr: 0x100004194, symSize: 0x2C }
  - { offsetInCU: 0x9728, offset: 0x9728, size: 0x8, addend: 0x0, symName: _main, symObjAddr: 0xB0, symBinAddr: 0x1000041C0, symSize: 0x1044 }
  - { offsetInCU: 0x9886, offset: 0x9886, size: 0x8, addend: 0x0, symName: __ZNSt3__112basic_stringIcNS_11char_traitsIcEENS_9allocatorIcEEEC1B8ue170006ILi0EEEPKc, symObjAddr: 0x10F4, symBinAddr: 0x100005204, symSize: 0x34 }
  - { offsetInCU: 0x98C8, offset: 0x98C8, size: 0x8, addend: 0x0, symName: __ZN4bodyC1Ev, symObjAddr: 0x1128, symBinAddr: 0x100005238, symSize: 0x2C }
  - { offsetInCU: 0x98F2, offset: 0x98F2, size: 0x8, addend: 0x0, symName: __ZNSt3__16vectorI4bodyNS_9allocatorIS1_EEE9push_backB8ue170006ERKS1_, symObjAddr: 0x1154, symBinAddr: 0x100005264, symSize: 0x6C }
  - { offsetInCU: 0x9927, offset: 0x9927, size: 0x8, addend: 0x0, symName: __ZNSt3__112basic_stringIcNS_11char_traitsIcEENS_9allocatorIcEEEaSB8ue170006EPKc, symObjAddr: 0x126C, symBinAddr: 0x10000537C, symSize: 0x2C }
  - { offsetInCU: 0x995A, offset: 0x995A, size: 0x8, addend: 0x0, symName: __ZNSt3__16vectorI4bodyNS_9allocatorIS1_EEEixB8ue170006Em, symObjAddr: 0x1298, symBinAddr: 0x1000053A8, symSize: 0x2C }
  - { offsetInCU: 0x998F, offset: 0x998F, size: 0x8, addend: 0x0, symName: __ZNKSt3__16vectorI4bodyNS_9allocatorIS1_EEE4sizeB8ue170006Ev, symObjAddr: 0x12C4, symBinAddr: 0x1000053D4, symSize: 0x28 }
  - { offsetInCU: 0x99B3, offset: 0x99B3, size: 0x8, addend: 0x0, symName: __ZN4bodyC1ERKS_, symObjAddr: 0x12EC, symBinAddr: 0x1000053FC, symSize: 0x34 }
  - { offsetInCU: 0x99E5, offset: 0x99E5, size: 0x8, addend: 0x0, symName: __ZN4bodyD1Ev, symObjAddr: 0x1320, symBinAddr: 0x100005430, symSize: 0x2C }
  - { offsetInCU: 0x9A0F, offset: 0x9A0F, size: 0x8, addend: 0x0, symName: __ZN4bodyC2Ev, symObjAddr: 0x134C, symBinAddr: 0x10000545C, symSize: 0x30 }
  - { offsetInCU: 0x9A39, offset: 0x9A39, size: 0x8, addend: 0x0, symName: __ZNSt3__112basic_stringIcNS_11char_traitsIcEENS_9allocatorIcEEEC1B8ue170006Ev, symObjAddr: 0x137C, symBinAddr: 0x10000548C, symSize: 0x2C }
  - { offsetInCU: 0x9A61, offset: 0x9A61, size: 0x8, addend: 0x0, symName: __ZNSt3__112basic_stringIcNS_11char_traitsIcEENS_9allocatorIcEEEC2B8ue170006Ev, symObjAddr: 0x13A8, symBinAddr: 0x1000054B8, symSize: 0x48 }
  - { offsetInCU: 0x9A8E, offset: 0x9A8E, size: 0x8, addend: 0x0, symName: __ZNSt3__117__compressed_pairINS_12basic_stringIcNS_11char_traitsIcEENS_9allocatorIcEEE5__repES5_EC1B8ue170006INS_18__default_init_tagESA_EEOT_OT0_, symObjAddr: 0x13F0, symBinAddr: 0x100005500, symSize: 0x3C }
  - { offsetInCU: 0x9AE4, offset: 0x9AE4, size: 0x8, addend: 0x0, symName: __ZNSt3__112basic_stringIcNS_11char_traitsIcEENS_9allocatorIcEEE14__default_initB8ue170006Ev, symObjAddr: 0x1438, symBinAddr: 0x100005548, symSize: 0x40 }
  - { offsetInCU: 0x9B08, offset: 0x9B08, size: 0x8, addend: 0x0, symName: __ZNSt3__117__compressed_pairINS_12basic_stringIcNS_11char_traitsIcEENS_9allocatorIcEEE5__repES5_EC2B8ue170006INS_18__default_init_tagESA_EEOT_OT0_, symObjAddr: 0x1478, symBinAddr: 0x100005588, symSize: 0x3C }
  - { offsetInCU: 0x9B5E, offset: 0x9B5E, size: 0x8, addend: 0x0, symName: __ZNSt3__122__compressed_pair_elemINS_12basic_stringIcNS_11char_traitsIcEENS_9allocatorIcEEE5__repELi0ELb0EEC2B8ue170006ENS_18__default_init_tagE, symObjAddr: 0x14B4, symBinAddr: 0x1000055C4, symSize: 0x14 }
  - { offsetInCU: 0x9B90, offset: 0x9B90, size: 0x8, addend: 0x0, symName: __ZNSt3__122__compressed_pair_elemINS_9allocatorIcEELi1ELb1EEC2B8ue170006ENS_18__default_init_tagE, symObjAddr: 0x14C8, symBinAddr: 0x1000055D8, symSize: 0x2C }
  - { offsetInCU: 0x9BC2, offset: 0x9BC2, size: 0x8, addend: 0x0, symName: __ZNSt3__19allocatorIcEC2B8ue170006Ev, symObjAddr: 0x14F4, symBinAddr: 0x100005604, symSize: 0x2C }
  - { offsetInCU: 0x9BEA, offset: 0x9BEA, size: 0x8, addend: 0x0, symName: __ZNSt3__116__non_trivial_ifILb1ENS_9allocatorIcEEEC2B8ue170006Ev, symObjAddr: 0x1520, symBinAddr: 0x100005630, symSize: 0x14 }
  - { offsetInCU: 0x9C12, offset: 0x9C12, size: 0x8, addend: 0x0, symName: __ZNSt3__117__compressed_pairINS_12basic_stringIcNS_11char_traitsIcEENS_9allocatorIcEEE5__repES5_E5firstB8ue170006Ev, symObjAddr: 0x1534, symBinAddr: 0x100005644, symSize: 0x24 }
  - { offsetInCU: 0x9C36, offset: 0x9C36, size: 0x8, addend: 0x0, symName: __ZNSt3__122__compressed_pair_elemINS_12basic_stringIcNS_11char_traitsIcEENS_9allocatorIcEEE5__repELi0ELb0EE5__getB8ue170006Ev, symObjAddr: 0x1558, symBinAddr: 0x100005668, symSize: 0x14 }
  - { offsetInCU: 0x9C5A, offset: 0x9C5A, size: 0x8, addend: 0x0, symName: __ZN4bodyC2ERKS_, symObjAddr: 0x156C, symBinAddr: 0x10000567C, symSize: 0x48 }
  - { offsetInCU: 0x9C8C, offset: 0x9C8C, size: 0x8, addend: 0x0, symName: __ZN4bodyD2Ev, symObjAddr: 0x15B4, symBinAddr: 0x1000056C4, symSize: 0x30 }
  - { offsetInCU: 0x9CB6, offset: 0x9CB6, size: 0x8, addend: 0x0, symName: __ZNSt3__16vectorI4bodyNS_9allocatorIS1_EEEC2B8ue170006Ev, symObjAddr: 0x15E4, symBinAddr: 0x1000056F4, symSize: 0x4C }
  - { offsetInCU: 0x9CE3, offset: 0x9CE3, size: 0x8, addend: 0x0, symName: __ZNSt3__117__compressed_pairIP4bodyNS_9allocatorIS1_EEEC1B8ue170006IDnNS_18__default_init_tagEEEOT_OT0_, symObjAddr: 0x1630, symBinAddr: 0x100005740, symSize: 0x3C }
  - { offsetInCU: 0x9D39, offset: 0x9D39, size: 0x8, addend: 0x0, symName: __ZNSt3__117__compressed_pairIP4bodyNS_9allocatorIS1_EEEC2B8ue170006IDnNS_18__default_init_tagEEEOT_OT0_, symObjAddr: 0x166C, symBinAddr: 0x10000577C, symSize: 0x40 }
  - { offsetInCU: 0x9D8F, offset: 0x9D8F, size: 0x8, addend: 0x0, symName: __ZNSt3__122__compressed_pair_elemIP4bodyLi0ELb0EEC2B8ue170006IDnvEEOT_, symObjAddr: 0x16AC, symBinAddr: 0x1000057BC, symSize: 0x1C }
  - { offsetInCU: 0x9DCF, offset: 0x9DCF, size: 0x8, addend: 0x0, symName: __ZNSt3__122__compressed_pair_elemINS_9allocatorI4bodyEELi1ELb1EEC2B8ue170006ENS_18__default_init_tagE, symObjAddr: 0x16C8, symBinAddr: 0x1000057D8, symSize: 0x2C }
  - { offsetInCU: 0x9E01, offset: 0x9E01, size: 0x8, addend: 0x0, symName: __ZNSt3__19allocatorI4bodyEC2B8ue170006Ev, symObjAddr: 0x16F4, symBinAddr: 0x100005804, symSize: 0x2C }
  - { offsetInCU: 0x9E29, offset: 0x9E29, size: 0x8, addend: 0x0, symName: __ZNSt3__116__non_trivial_ifILb1ENS_9allocatorI4bodyEEEC2B8ue170006Ev, symObjAddr: 0x1720, symBinAddr: 0x100005830, symSize: 0x14 }
  - { offsetInCU: 0x9E51, offset: 0x9E51, size: 0x8, addend: 0x0, symName: __ZNSt3__16vectorI4bodyNS_9allocatorIS1_EEED2B8ue170006Ev, symObjAddr: 0x1734, symBinAddr: 0x100005844, symSize: 0x44 }
  - { offsetInCU: 0x9E79, offset: 0x9E79, size: 0x8, addend: 0x0, symName: __ZNSt3__16vectorI4bodyNS_9allocatorIS1_EEE16__destroy_vectorC1B8ue170006ERS4_, symObjAddr: 0x1778, symBinAddr: 0x100005888, symSize: 0x34 }
  - { offsetInCU: 0x9EB0, offset: 0x9EB0, size: 0x8, addend: 0x0, symName: __ZNSt3__16vectorI4bodyNS_9allocatorIS1_EEE16__destroy_vectorclB8ue170006Ev, symObjAddr: 0x17AC, symBinAddr: 0x1000058BC, symSize: 0x90 }
  - { offsetInCU: 0x9ED4, offset: 0x9ED4, size: 0x8, addend: 0x0, symName: __ZNSt3__16vectorI4bodyNS_9allocatorIS1_EEE16__destroy_vectorC2B8ue170006ERS4_, symObjAddr: 0x183C, symBinAddr: 0x10000594C, symSize: 0x20 }
  - { offsetInCU: 0x9F0B, offset: 0x9F0B, size: 0x8, addend: 0x0, symName: __ZNSt3__16vectorI4bodyNS_9allocatorIS1_EEE7__clearB8ue170006Ev, symObjAddr: 0x185C, symBinAddr: 0x10000596C, symSize: 0x28 }
  - { offsetInCU: 0x9F2F, offset: 0x9F2F, size: 0x8, addend: 0x0, symName: __ZNKSt3__16vectorI4bodyNS_9allocatorIS1_EEE17__annotate_deleteB8ue170006Ev, symObjAddr: 0x1884, symBinAddr: 0x100005994, symSize: 0xD4 }
  - { offsetInCU: 0x9F53, offset: 0x9F53, size: 0x8, addend: 0x0, symName: __ZNSt3__116allocator_traitsINS_9allocatorI4bodyEEE10deallocateB8ue170006ERS3_PS2_m, symObjAddr: 0x1958, symBinAddr: 0x100005A68, symSize: 0x34 }
  - { offsetInCU: 0x9F94, offset: 0x9F94, size: 0x8, addend: 0x0, symName: __ZNSt3__16vectorI4bodyNS_9allocatorIS1_EEE7__allocB8ue170006Ev, symObjAddr: 0x198C, symBinAddr: 0x100005A9C, symSize: 0x28 }
  - { offsetInCU: 0x9FB8, offset: 0x9FB8, size: 0x8, addend: 0x0, symName: __ZNKSt3__16vectorI4bodyNS_9allocatorIS1_EEE8capacityB8ue170006Ev, symObjAddr: 0x19B4, symBinAddr: 0x100005AC4, symSize: 0x40 }
  - { offsetInCU: 0x9FDC, offset: 0x9FDC, size: 0x8, addend: 0x0, symName: __ZNSt3__16vectorI4bodyNS_9allocatorIS1_EEE22__base_destruct_at_endB8ue170006EPS1_, symObjAddr: 0x19F4, symBinAddr: 0x100005B04, symSize: 0x8C }
  - { offsetInCU: 0xA01E, offset: 0xA01E, size: 0x8, addend: 0x0, symName: __ZNSt3__116allocator_traitsINS_9allocatorI4bodyEEE7destroyB8ue170006IS2_vEEvRS3_PT_, symObjAddr: 0x1A80, symBinAddr: 0x100005B90, symSize: 0x2C }
  - { offsetInCU: 0xA05A, offset: 0xA05A, size: 0x8, addend: 0x0, symName: __ZNSt3__19allocatorI4bodyE7destroyB8ue170006EPS1_, symObjAddr: 0x1AC0, symBinAddr: 0x100005BD0, symSize: 0x28 }
  - { offsetInCU: 0xA08C, offset: 0xA08C, size: 0x8, addend: 0x0, symName: __ZNKSt3__16vectorI4bodyNS_9allocatorIS1_EEE31__annotate_contiguous_containerB8ue170006EPKvS6_S6_S6_, symObjAddr: 0x1AE8, symBinAddr: 0x100005BF8, symSize: 0x20 }
  - { offsetInCU: 0xA0DC, offset: 0xA0DC, size: 0x8, addend: 0x0, symName: __ZNKSt3__16vectorI4bodyNS_9allocatorIS1_EEE4dataB8ue170006Ev, symObjAddr: 0x1B08, symBinAddr: 0x100005C18, symSize: 0x28 }
  - { offsetInCU: 0xA100, offset: 0xA100, size: 0x8, addend: 0x0, symName: __ZNSt3__19allocatorI4bodyE10deallocateB8ue170006EPS1_m, symObjAddr: 0x1B30, symBinAddr: 0x100005C40, symSize: 0x44 }
  - { offsetInCU: 0xA140, offset: 0xA140, size: 0x8, addend: 0x0, symName: __ZNSt3__117__compressed_pairIP4bodyNS_9allocatorIS1_EEE6secondB8ue170006Ev, symObjAddr: 0x1BF0, symBinAddr: 0x100005D00, symSize: 0x24 }
  - { offsetInCU: 0xA164, offset: 0xA164, size: 0x8, addend: 0x0, symName: __ZNSt3__122__compressed_pair_elemINS_9allocatorI4bodyEELi1ELb1EE5__getB8ue170006Ev, symObjAddr: 0x1C14, symBinAddr: 0x100005D24, symSize: 0x14 }
  - { offsetInCU: 0xA188, offset: 0xA188, size: 0x8, addend: 0x0, symName: __ZNKSt3__16vectorI4bodyNS_9allocatorIS1_EEE9__end_capB8ue170006Ev, symObjAddr: 0x1C28, symBinAddr: 0x100005D38, symSize: 0x28 }
  - { offsetInCU: 0xA1AC, offset: 0xA1AC, size: 0x8, addend: 0x0, symName: __ZNKSt3__117__compressed_pairIP4bodyNS_9allocatorIS1_EEE5firstB8ue170006Ev, symObjAddr: 0x1C50, symBinAddr: 0x100005D60, symSize: 0x24 }
  - { offsetInCU: 0xA1D0, offset: 0xA1D0, size: 0x8, addend: 0x0, symName: __ZNKSt3__122__compressed_pair_elemIP4bodyLi0ELb0EE5__getB8ue170006Ev, symObjAddr: 0x1C74, symBinAddr: 0x100005D84, symSize: 0x14 }
  - { offsetInCU: 0xA1F4, offset: 0xA1F4, size: 0x8, addend: 0x0, symName: __ZNSt3__16vectorI10posChangedNS_9allocatorIS1_EEEC2B8ue170006Ev, symObjAddr: 0x1C88, symBinAddr: 0x100005D98, symSize: 0x4C }
  - { offsetInCU: 0xA21C, offset: 0xA21C, size: 0x8, addend: 0x0, symName: __ZNSt3__117__compressed_pairIP10posChangedNS_9allocatorIS1_EEEC1B8ue170006IDnNS_18__default_init_tagEEEOT_OT0_, symObjAddr: 0x1CD4, symBinAddr: 0x100005DE4, symSize: 0x3C }
  - { offsetInCU: 0xA272, offset: 0xA272, size: 0x8, addend: 0x0, symName: __ZNSt3__117__compressed_pairIP10posChangedNS_9allocatorIS1_EEEC2B8ue170006IDnNS_18__default_init_tagEEEOT_OT0_, symObjAddr: 0x1D10, symBinAddr: 0x100005E20, symSize: 0x40 }
  - { offsetInCU: 0xA2C8, offset: 0xA2C8, size: 0x8, addend: 0x0, symName: __ZNSt3__122__compressed_pair_elemIP10posChangedLi0ELb0EEC2B8ue170006IDnvEEOT_, symObjAddr: 0x1D50, symBinAddr: 0x100005E60, symSize: 0x1C }
  - { offsetInCU: 0xA308, offset: 0xA308, size: 0x8, addend: 0x0, symName: __ZNSt3__122__compressed_pair_elemINS_9allocatorI10posChangedEELi1ELb1EEC2B8ue170006ENS_18__default_init_tagE, symObjAddr: 0x1D6C, symBinAddr: 0x100005E7C, symSize: 0x2C }
  - { offsetInCU: 0xA33A, offset: 0xA33A, size: 0x8, addend: 0x0, symName: __ZNSt3__19allocatorI10posChangedEC2B8ue170006Ev, symObjAddr: 0x1D98, symBinAddr: 0x100005EA8, symSize: 0x2C }
  - { offsetInCU: 0xA362, offset: 0xA362, size: 0x8, addend: 0x0, symName: __ZNSt3__116__non_trivial_ifILb1ENS_9allocatorI10posChangedEEEC2B8ue170006Ev, symObjAddr: 0x1DC4, symBinAddr: 0x100005ED4, symSize: 0x14 }
  - { offsetInCU: 0xA38A, offset: 0xA38A, size: 0x8, addend: 0x0, symName: __ZNSt3__16vectorI10posChangedNS_9allocatorIS1_EEED2B8ue170006Ev, symObjAddr: 0x1DD8, symBinAddr: 0x100005EE8, symSize: 0x44 }
  - { offsetInCU: 0xA3B2, offset: 0xA3B2, size: 0x8, addend: 0x0, symName: __ZNSt3__16vectorI10posChangedNS_9allocatorIS1_EEE16__destroy_vectorC1B8ue170006ERS4_, symObjAddr: 0x1E1C, symBinAddr: 0x100005F2C, symSize: 0x34 }
  - { offsetInCU: 0xA3E9, offset: 0xA3E9, size: 0x8, addend: 0x0, symName: __ZNSt3__16vectorI10posChangedNS_9allocatorIS1_EEE16__destroy_vectorclB8ue170006Ev, symObjAddr: 0x1E50, symBinAddr: 0x100005F60, symSize: 0x90 }
  - { offsetInCU: 0xA40D, offset: 0xA40D, size: 0x8, addend: 0x0, symName: __ZNSt3__16vectorI10posChangedNS_9allocatorIS1_EEE16__destroy_vectorC2B8ue170006ERS4_, symObjAddr: 0x1EE0, symBinAddr: 0x100005FF0, symSize: 0x20 }
  - { offsetInCU: 0xA444, offset: 0xA444, size: 0x8, addend: 0x0, symName: __ZNSt3__16vectorI10posChangedNS_9allocatorIS1_EEE7__clearB8ue170006Ev, symObjAddr: 0x1F00, symBinAddr: 0x100006010, symSize: 0x28 }
  - { offsetInCU: 0xA468, offset: 0xA468, size: 0x8, addend: 0x0, symName: __ZNKSt3__16vectorI10posChangedNS_9allocatorIS1_EEE17__annotate_deleteB8ue170006Ev, symObjAddr: 0x1F28, symBinAddr: 0x100006038, symSize: 0xB8 }
  - { offsetInCU: 0xA48C, offset: 0xA48C, size: 0x8, addend: 0x0, symName: __ZNSt3__116allocator_traitsINS_9allocatorI10posChangedEEE10deallocateB8ue170006ERS3_PS2_m, symObjAddr: 0x1FE0, symBinAddr: 0x1000060F0, symSize: 0x34 }
  - { offsetInCU: 0xA4CD, offset: 0xA4CD, size: 0x8, addend: 0x0, symName: __ZNSt3__16vectorI10posChangedNS_9allocatorIS1_EEE7__allocB8ue170006Ev, symObjAddr: 0x2014, symBinAddr: 0x100006124, symSize: 0x28 }
  - { offsetInCU: 0xA4F1, offset: 0xA4F1, size: 0x8, addend: 0x0, symName: __ZNKSt3__16vectorI10posChangedNS_9allocatorIS1_EEE8capacityB8ue170006Ev, symObjAddr: 0x203C, symBinAddr: 0x10000614C, symSize: 0x40 }
  - { offsetInCU: 0xA515, offset: 0xA515, size: 0x8, addend: 0x0, symName: __ZNSt3__16vectorI10posChangedNS_9allocatorIS1_EEE22__base_destruct_at_endB8ue170006EPS1_, symObjAddr: 0x207C, symBinAddr: 0x10000618C, symSize: 0x8C }
  - { offsetInCU: 0xA557, offset: 0xA557, size: 0x8, addend: 0x0, symName: __ZNSt3__116allocator_traitsINS_9allocatorI10posChangedEEE7destroyB8ue170006IS2_vEEvRS3_PT_, symObjAddr: 0x2108, symBinAddr: 0x100006218, symSize: 0x2C }
  - { offsetInCU: 0xA593, offset: 0xA593, size: 0x8, addend: 0x0, symName: __ZNSt3__19allocatorI10posChangedE7destroyB8ue170006EPS1_, symObjAddr: 0x2148, symBinAddr: 0x100006258, symSize: 0x28 }
  - { offsetInCU: 0xA5CA, offset: 0xA5CA, size: 0x8, addend: 0x0, symName: __ZN10posChangedD1Ev, symObjAddr: 0x2170, symBinAddr: 0x100006280, symSize: 0x2C }
  - { offsetInCU: 0xA5F4, offset: 0xA5F4, size: 0x8, addend: 0x0, symName: __ZN10posChangedD2Ev, symObjAddr: 0x219C, symBinAddr: 0x1000062AC, symSize: 0x30 }
  - { offsetInCU: 0xA61E, offset: 0xA61E, size: 0x8, addend: 0x0, symName: __ZNKSt3__16vectorI10posChangedNS_9allocatorIS1_EEE31__annotate_contiguous_containerB8ue170006EPKvS6_S6_S6_, symObjAddr: 0x21CC, symBinAddr: 0x1000062DC, symSize: 0x20 }
  - { offsetInCU: 0xA66E, offset: 0xA66E, size: 0x8, addend: 0x0, symName: __ZNKSt3__16vectorI10posChangedNS_9allocatorIS1_EEE4dataB8ue170006Ev, symObjAddr: 0x21EC, symBinAddr: 0x1000062FC, symSize: 0x28 }
  - { offsetInCU: 0xA692, offset: 0xA692, size: 0x8, addend: 0x0, symName: __ZNKSt3__16vectorI10posChangedNS_9allocatorIS1_EEE4sizeB8ue170006Ev, symObjAddr: 0x2214, symBinAddr: 0x100006324, symSize: 0x28 }
  - { offsetInCU: 0xA6B6, offset: 0xA6B6, size: 0x8, addend: 0x0, symName: __ZNSt3__19allocatorI10posChangedE10deallocateB8ue170006EPS1_m, symObjAddr: 0x223C, symBinAddr: 0x10000634C, symSize: 0x40 }
  - { offsetInCU: 0xA6F6, offset: 0xA6F6, size: 0x8, addend: 0x0, symName: __ZNSt3__117__compressed_pairIP10posChangedNS_9allocatorIS1_EEE6secondB8ue170006Ev, symObjAddr: 0x227C, symBinAddr: 0x10000638C, symSize: 0x24 }
  - { offsetInCU: 0xA71A, offset: 0xA71A, size: 0x8, addend: 0x0, symName: __ZNSt3__122__compressed_pair_elemINS_9allocatorI10posChangedEELi1ELb1EE5__getB8ue170006Ev, symObjAddr: 0x22A0, symBinAddr: 0x1000063B0, symSize: 0x14 }
  - { offsetInCU: 0xA73E, offset: 0xA73E, size: 0x8, addend: 0x0, symName: __ZNKSt3__16vectorI10posChangedNS_9allocatorIS1_EEE9__end_capB8ue170006Ev, symObjAddr: 0x22B4, symBinAddr: 0x1000063C4, symSize: 0x28 }
  - { offsetInCU: 0xA762, offset: 0xA762, size: 0x8, addend: 0x0, symName: __ZNKSt3__117__compressed_pairIP10posChangedNS_9allocatorIS1_EEE5firstB8ue170006Ev, symObjAddr: 0x22DC, symBinAddr: 0x1000063EC, symSize: 0x24 }
  - { offsetInCU: 0xA786, offset: 0xA786, size: 0x8, addend: 0x0, symName: __ZNKSt3__122__compressed_pair_elemIP10posChangedLi0ELb0EE5__getB8ue170006Ev, symObjAddr: 0x2300, symBinAddr: 0x100006410, symSize: 0x14 }
  - { offsetInCU: 0xA7AA, offset: 0xA7AA, size: 0x8, addend: 0x0, symName: __ZNSt3__112basic_stringIcNS_11char_traitsIcEENS_9allocatorIcEEEC2B8ue170006ILi0EEEPKc, symObjAddr: 0x2314, symBinAddr: 0x100006424, symSize: 0x58 }
  - { offsetInCU: 0xA7E7, offset: 0xA7E7, size: 0x8, addend: 0x0, symName: __ZNSt3__111char_traitsIcE6lengthB8ue170006EPKc, symObjAddr: 0x236C, symBinAddr: 0x10000647C, symSize: 0x34 }
  - { offsetInCU: 0xA809, offset: 0xA809, size: 0x8, addend: 0x0, symName: __ZNSt3__16vectorI4bodyNS_9allocatorIS1_EEE9__end_capB8ue170006Ev, symObjAddr: 0x23C4, symBinAddr: 0x1000064D4, symSize: 0x28 }
  - { offsetInCU: 0xA82D, offset: 0xA82D, size: 0x8, addend: 0x0, symName: __ZNSt3__16vectorI4bodyNS_9allocatorIS1_EEE22__construct_one_at_endB8ue170006IJRKS1_EEEvDpOT_, symObjAddr: 0x23EC, symBinAddr: 0x1000064FC, symSize: 0x90 }
  - { offsetInCU: 0xA87A, offset: 0xA87A, size: 0x8, addend: 0x0, symName: __ZNSt3__16vectorI4bodyNS_9allocatorIS1_EEE21__push_back_slow_pathIRKS1_EEvOT_, symObjAddr: 0x247C, symBinAddr: 0x10000658C, symSize: 0xD8 }
  - { offsetInCU: 0xA8D6, offset: 0xA8D6, size: 0x8, addend: 0x0, symName: __ZNSt3__117__compressed_pairIP4bodyNS_9allocatorIS1_EEE5firstB8ue170006Ev, symObjAddr: 0x2554, symBinAddr: 0x100006664, symSize: 0x24 }
  - { offsetInCU: 0xA8FA, offset: 0xA8FA, size: 0x8, addend: 0x0, symName: __ZNSt3__122__compressed_pair_elemIP4bodyLi0ELb0EE5__getB8ue170006Ev, symObjAddr: 0x2578, symBinAddr: 0x100006688, symSize: 0x14 }
  - { offsetInCU: 0xA937, offset: 0xA937, size: 0x8, addend: 0x0, symName: __ZNSt3__16vectorI4bodyNS_9allocatorIS1_EEE21_ConstructTransactionC1B8ue170006ERS4_m, symObjAddr: 0x258C, symBinAddr: 0x10000669C, symSize: 0x3C }
  - { offsetInCU: 0xA97D, offset: 0xA97D, size: 0x8, addend: 0x0, symName: __ZNSt3__116allocator_traitsINS_9allocatorI4bodyEEE9constructB8ue170006IS2_JRKS2_EvEEvRS3_PT_DpOT0_, symObjAddr: 0x25C8, symBinAddr: 0x1000066D8, symSize: 0x34 }
  - { offsetInCU: 0xA9D3, offset: 0xA9D3, size: 0x8, addend: 0x0, symName: __ZNSt3__16vectorI4bodyNS_9allocatorIS1_EEE21_ConstructTransactionD1B8ue170006Ev, symObjAddr: 0x25FC, symBinAddr: 0x10000670C, symSize: 0x2C }
  - { offsetInCU: 0xA9FB, offset: 0xA9FB, size: 0x8, addend: 0x0, symName: __ZNSt3__16vectorI4bodyNS_9allocatorIS1_EEE21_ConstructTransactionC2B8ue170006ERS4_m, symObjAddr: 0x2628, symBinAddr: 0x100006738, symSize: 0x4C }
  - { offsetInCU: 0xAA41, offset: 0xAA41, size: 0x8, addend: 0x0, symName: __ZNSt3__19allocatorI4bodyE9constructB8ue170006IS1_JRKS1_EEEvPT_DpOT0_, symObjAddr: 0x2674, symBinAddr: 0x100006784, symSize: 0x30 }
  - { offsetInCU: 0xAA95, offset: 0xAA95, size: 0x8, addend: 0x0, symName: __ZNSt3__16vectorI4bodyNS_9allocatorIS1_EEE21_ConstructTransactionD2B8ue170006Ev, symObjAddr: 0x26A4, symBinAddr: 0x1000067B4, symSize: 0x20 }
  - { offsetInCU: 0xAABD, offset: 0xAABD, size: 0x8, addend: 0x0, symName: __ZNKSt3__16vectorI4bodyNS_9allocatorIS1_EEE11__recommendB8ue170006Em, symObjAddr: 0x26C4, symBinAddr: 0x1000067D4, symSize: 0xB4 }
  - { offsetInCU: 0xAB11, offset: 0xAB11, size: 0x8, addend: 0x0, symName: __ZNSt3__114__split_bufferI4bodyRNS_9allocatorIS1_EEEC1EmmS4_, symObjAddr: 0x2778, symBinAddr: 0x100006888, symSize: 0x44 }
  - { offsetInCU: 0xAB65, offset: 0xAB65, size: 0x8, addend: 0x0, symName: __ZNSt3__114__split_bufferI4bodyRNS_9allocatorIS1_EEED1Ev, symObjAddr: 0x28CC, symBinAddr: 0x1000069DC, symSize: 0x2C }
  - { offsetInCU: 0xAB8E, offset: 0xAB8E, size: 0x8, addend: 0x0, symName: __ZNKSt3__16vectorI4bodyNS_9allocatorIS1_EEE8max_sizeEv, symObjAddr: 0x28F8, symBinAddr: 0x100006A08, symSize: 0x60 }
  - { offsetInCU: 0xABB4, offset: 0xABB4, size: 0x8, addend: 0x0, symName: __ZNKSt3__16vectorI4bodyNS_9allocatorIS1_EEE20__throw_length_errorB8ue170006Ev, symObjAddr: 0x2958, symBinAddr: 0x100006A68, symSize: 0x1C }
  - { offsetInCU: 0xABE2, offset: 0xABE2, size: 0x8, addend: 0x0, symName: __ZNSt3__116allocator_traitsINS_9allocatorI4bodyEEE8max_sizeB8ue170006IS3_vEEmRKS3_, symObjAddr: 0x29CC, symBinAddr: 0x100006ADC, symSize: 0x24 }
  - { offsetInCU: 0xAC0F, offset: 0xAC0F, size: 0x8, addend: 0x0, symName: __ZNKSt3__16vectorI4bodyNS_9allocatorIS1_EEE7__allocB8ue170006Ev, symObjAddr: 0x29F0, symBinAddr: 0x100006B00, symSize: 0x28 }
  - { offsetInCU: 0xAC34, offset: 0xAC34, size: 0x8, addend: 0x0, symName: __ZNSt3__114numeric_limitsIlE3maxB8ue170006Ev, symObjAddr: 0x2A18, symBinAddr: 0x100006B28, symSize: 0x14 }
  - { offsetInCU: 0xAC5A, offset: 0xAC5A, size: 0x8, addend: 0x0, symName: __ZNKSt3__16__lessIvvEclB8ue170006ImmEEbRKT_RKT0_, symObjAddr: 0x2A80, symBinAddr: 0x100006B90, symSize: 0x34 }
  - { offsetInCU: 0xACAC, offset: 0xACAC, size: 0x8, addend: 0x0, symName: __ZNKSt3__19allocatorI4bodyE8max_sizeB8ue170006Ev, symObjAddr: 0x2AB4, symBinAddr: 0x100006BC4, symSize: 0x18 }
  - { offsetInCU: 0xACD0, offset: 0xACD0, size: 0x8, addend: 0x0, symName: __ZNKSt3__117__compressed_pairIP4bodyNS_9allocatorIS1_EEE6secondB8ue170006Ev, symObjAddr: 0x2ACC, symBinAddr: 0x100006BDC, symSize: 0x24 }
  - { offsetInCU: 0xACF4, offset: 0xACF4, size: 0x8, addend: 0x0, symName: __ZNKSt3__122__compressed_pair_elemINS_9allocatorI4bodyEELi1ELb1EE5__getB8ue170006Ev, symObjAddr: 0x2AF0, symBinAddr: 0x100006C00, symSize: 0x14 }
  - { offsetInCU: 0xAD19, offset: 0xAD19, size: 0x8, addend: 0x0, symName: __ZNSt3__123__libcpp_numeric_limitsIlLb1EE3maxB8ue170006Ev, symObjAddr: 0x2B04, symBinAddr: 0x100006C14, symSize: 0x8 }
  - { offsetInCU: 0xAD2B, offset: 0xAD2B, size: 0x8, addend: 0x0, symName: __ZNSt12length_errorC1B8ue170006EPKc, symObjAddr: 0x2B70, symBinAddr: 0x100006C80, symSize: 0x34 }
  - { offsetInCU: 0xAD61, offset: 0xAD61, size: 0x8, addend: 0x0, symName: __ZNSt12length_errorC2B8ue170006EPKc, symObjAddr: 0x2BA4, symBinAddr: 0x100006CB4, symSize: 0x4C }
  - { offsetInCU: 0xAD98, offset: 0xAD98, size: 0x8, addend: 0x0, symName: __ZNSt3__114__split_bufferI4bodyRNS_9allocatorIS1_EEEC2EmmS4_, symObjAddr: 0x2C44, symBinAddr: 0x100006D54, symSize: 0xE0 }
  - { offsetInCU: 0xAE08, offset: 0xAE08, size: 0x8, addend: 0x0, symName: __ZNSt3__117__compressed_pairIP4bodyRNS_9allocatorIS1_EEEC1B8ue170006IDnS5_EEOT_OT0_, symObjAddr: 0x2D24, symBinAddr: 0x100006E34, symSize: 0x3C }
  - { offsetInCU: 0xAE5E, offset: 0xAE5E, size: 0x8, addend: 0x0, symName: __ZNSt3__114__split_bufferI4bodyRNS_9allocatorIS1_EEE7__allocB8ue170006Ev, symObjAddr: 0x2DA0, symBinAddr: 0x100006EB0, symSize: 0x28 }
  - { offsetInCU: 0xAE82, offset: 0xAE82, size: 0x8, addend: 0x0, symName: __ZNSt3__114__split_bufferI4bodyRNS_9allocatorIS1_EEE9__end_capB8ue170006Ev, symObjAddr: 0x2DC8, symBinAddr: 0x100006ED8, symSize: 0x28 }
  - { offsetInCU: 0xAEA6, offset: 0xAEA6, size: 0x8, addend: 0x0, symName: __ZNSt3__117__compressed_pairIP4bodyRNS_9allocatorIS1_EEEC2B8ue170006IDnS5_EEOT_OT0_, symObjAddr: 0x2DF0, symBinAddr: 0x100006F00, symSize: 0x48 }
  - { offsetInCU: 0xAEFC, offset: 0xAEFC, size: 0x8, addend: 0x0, symName: __ZNSt3__122__compressed_pair_elemIRNS_9allocatorI4bodyEELi1ELb0EEC2B8ue170006IS4_vEEOT_, symObjAddr: 0x2E38, symBinAddr: 0x100006F48, symSize: 0x20 }
  - { offsetInCU: 0xAF3C, offset: 0xAF3C, size: 0x8, addend: 0x0, symName: __ZNSt3__19allocatorI4bodyE8allocateB8ue170006Em, symObjAddr: 0x2E58, symBinAddr: 0x100006F68, symSize: 0x5C }
  - { offsetInCU: 0xAF6E, offset: 0xAF6E, size: 0x8, addend: 0x0, symName: __ZNSt3__117__compressed_pairIP4bodyRNS_9allocatorIS1_EEE6secondB8ue170006Ev, symObjAddr: 0x2F34, symBinAddr: 0x100007044, symSize: 0x28 }
  - { offsetInCU: 0xAF92, offset: 0xAF92, size: 0x8, addend: 0x0, symName: __ZNSt3__122__compressed_pair_elemIRNS_9allocatorI4bodyEELi1ELb0EE5__getB8ue170006Ev, symObjAddr: 0x2F5C, symBinAddr: 0x10000706C, symSize: 0x18 }
  - { offsetInCU: 0xAFB6, offset: 0xAFB6, size: 0x8, addend: 0x0, symName: __ZNSt3__117__compressed_pairIP4bodyRNS_9allocatorIS1_EEE5firstB8ue170006Ev, symObjAddr: 0x2F74, symBinAddr: 0x100007084, symSize: 0x24 }
  - { offsetInCU: 0xAFDA, offset: 0xAFDA, size: 0x8, addend: 0x0, symName: __ZNSt3__116reverse_iteratorIP4bodyEC1B8ue170006ES2_, symObjAddr: 0x30C4, symBinAddr: 0x1000071D4, symSize: 0x34 }
  - { offsetInCU: 0xB010, offset: 0xB010, size: 0x8, addend: 0x0, symName: __ZNKSt3__116reverse_iteratorIP4bodyE4baseB8ue170006Ev, symObjAddr: 0x30F8, symBinAddr: 0x100007208, symSize: 0x18 }
  - { offsetInCU: 0xB034, offset: 0xB034, size: 0x8, addend: 0x0, symName: __ZNKSt3__16vectorI4bodyNS_9allocatorIS1_EEE14__annotate_newB8ue170006Em, symObjAddr: 0x314C, symBinAddr: 0x10000725C, symSize: 0xC8 }
  - { offsetInCU: 0xB067, offset: 0xB067, size: 0x8, addend: 0x0, symName: __ZNSt3__129_AllocatorDestroyRangeReverseINS_9allocatorI4bodyEENS_16reverse_iteratorIPS2_EEEC1B8ue170006ERS3_RS6_S9_, symObjAddr: 0x3260, symBinAddr: 0x100007370, symSize: 0x44 }
  - { offsetInCU: 0xB0C1, offset: 0xB0C1, size: 0x8, addend: 0x0, symName: __ZNSt3__116allocator_traitsINS_9allocatorI4bodyEEE9constructB8ue170006IS2_JS2_EvEEvRS3_PT_DpOT0_, symObjAddr: 0x32EC, symBinAddr: 0x1000073FC, symSize: 0x34 }
  - { offsetInCU: 0xB117, offset: 0xB117, size: 0x8, addend: 0x0, symName: __ZNKSt3__116reverse_iteratorIP4bodyEdeB8ue170006Ev, symObjAddr: 0x3344, symBinAddr: 0x100007454, symSize: 0x28 }
  - { offsetInCU: 0xB149, offset: 0xB149, size: 0x8, addend: 0x0, symName: __ZNSt3__116reverse_iteratorIP4bodyEppB8ue170006Ev, symObjAddr: 0x336C, symBinAddr: 0x10000747C, symSize: 0x20 }
  - { offsetInCU: 0xB16D, offset: 0xB16D, size: 0x8, addend: 0x0, symName: __ZNSt3__128__exception_guard_exceptionsINS_29_AllocatorDestroyRangeReverseINS_9allocatorI4bodyEENS_16reverse_iteratorIPS3_EEEEE10__completeB8ue170006Ev, symObjAddr: 0x338C, symBinAddr: 0x10000749C, symSize: 0x1C }
  - { offsetInCU: 0xB191, offset: 0xB191, size: 0x8, addend: 0x0, symName: __ZNSt3__128__exception_guard_exceptionsINS_29_AllocatorDestroyRangeReverseINS_9allocatorI4bodyEENS_16reverse_iteratorIPS3_EEEEED1B8ue170006Ev, symObjAddr: 0x33A8, symBinAddr: 0x1000074B8, symSize: 0x2C }
  - { offsetInCU: 0xB1B9, offset: 0xB1B9, size: 0x8, addend: 0x0, symName: __ZNSt3__128__exception_guard_exceptionsINS_29_AllocatorDestroyRangeReverseINS_9allocatorI4bodyEENS_16reverse_iteratorIPS3_EEEEEC1B8ue170006ES8_, symObjAddr: 0x33D4, symBinAddr: 0x1000074E4, symSize: 0x34 }
  - { offsetInCU: 0xB1F0, offset: 0xB1F0, size: 0x8, addend: 0x0, symName: __ZNSt3__128__exception_guard_exceptionsINS_29_AllocatorDestroyRangeReverseINS_9allocatorI4bodyEENS_16reverse_iteratorIPS3_EEEEEC2B8ue170006ES8_, symObjAddr: 0x3408, symBinAddr: 0x100007518, symSize: 0x30 }
  - { offsetInCU: 0xB227, offset: 0xB227, size: 0x8, addend: 0x0, symName: __ZNSt3__129_AllocatorDestroyRangeReverseINS_9allocatorI4bodyEENS_16reverse_iteratorIPS2_EEEC2B8ue170006ERS3_RS6_S9_, symObjAddr: 0x3438, symBinAddr: 0x100007548, symSize: 0x38 }
  - { offsetInCU: 0xB27C, offset: 0xB27C, size: 0x8, addend: 0x0, symName: __ZNSt3__19allocatorI4bodyE9constructB8ue170006IS1_JS1_EEEvPT_DpOT0_, symObjAddr: 0x3470, symBinAddr: 0x100007580, symSize: 0x30 }
  - { offsetInCU: 0xB2D0, offset: 0xB2D0, size: 0x8, addend: 0x0, symName: __ZN4bodyC1EOS_, symObjAddr: 0x34A0, symBinAddr: 0x1000075B0, symSize: 0x34 }
  - { offsetInCU: 0xB302, offset: 0xB302, size: 0x8, addend: 0x0, symName: __ZN4bodyC2EOS_, symObjAddr: 0x34D4, symBinAddr: 0x1000075E4, symSize: 0x48 }
  - { offsetInCU: 0xB334, offset: 0xB334, size: 0x8, addend: 0x0, symName: __ZNSt3__112basic_stringIcNS_11char_traitsIcEENS_9allocatorIcEEEC1B8ue170006EOS5_, symObjAddr: 0x351C, symBinAddr: 0x10000762C, symSize: 0x34 }
  - { offsetInCU: 0xB36B, offset: 0xB36B, size: 0x8, addend: 0x0, symName: __ZNSt3__112basic_stringIcNS_11char_traitsIcEENS_9allocatorIcEEEC2B8ue170006EOS5_, symObjAddr: 0x3550, symBinAddr: 0x100007660, symSize: 0x48 }
  - { offsetInCU: 0xB3A7, offset: 0xB3A7, size: 0x8, addend: 0x0, symName: __ZNSt3__119__to_address_helperINS_16reverse_iteratorIP4bodyEEvE6__callB8ue170006ERKS4_, symObjAddr: 0x3598, symBinAddr: 0x1000076A8, symSize: 0x38 }
  - { offsetInCU: 0xB3C9, offset: 0xB3C9, size: 0x8, addend: 0x0, symName: __ZNKSt3__116reverse_iteratorIP4bodyEptB8ue170006Ev, symObjAddr: 0x35D0, symBinAddr: 0x1000076E0, symSize: 0x24 }
  - { offsetInCU: 0xB3ED, offset: 0xB3ED, size: 0x8, addend: 0x0, symName: __ZNSt3__128__exception_guard_exceptionsINS_29_AllocatorDestroyRangeReverseINS_9allocatorI4bodyEENS_16reverse_iteratorIPS3_EEEEED2B8ue170006Ev, symObjAddr: 0x35F4, symBinAddr: 0x100007704, symSize: 0x50 }
  - { offsetInCU: 0xB415, offset: 0xB415, size: 0x8, addend: 0x0, symName: __ZNKSt3__129_AllocatorDestroyRangeReverseINS_9allocatorI4bodyEENS_16reverse_iteratorIPS2_EEEclB8ue170006Ev, symObjAddr: 0x3644, symBinAddr: 0x100007754, symSize: 0xB4 }
  - { offsetInCU: 0xB43A, offset: 0xB43A, size: 0x8, addend: 0x0, symName: __ZNSt3__116reverse_iteratorINS0_IP4bodyEEEC1B8ue170006ES3_, symObjAddr: 0x3768, symBinAddr: 0x100007878, symSize: 0x3C }
  - { offsetInCU: 0xB470, offset: 0xB470, size: 0x8, addend: 0x0, symName: __ZNSt3__116reverse_iteratorINS0_IP4bodyEEEppB8ue170006Ev, symObjAddr: 0x3828, symBinAddr: 0x100007938, symSize: 0x30 }
  - { offsetInCU: 0xB494, offset: 0xB494, size: 0x8, addend: 0x0, symName: __ZNKSt3__116reverse_iteratorINS0_IP4bodyEEE4baseB8ue170006Ev, symObjAddr: 0x3858, symBinAddr: 0x100007968, symSize: 0x24 }
  - { offsetInCU: 0xB4BD, offset: 0xB4BD, size: 0x8, addend: 0x0, symName: __ZNSt3__119__to_address_helperINS_16reverse_iteratorINS1_IP4bodyEEEEvE6__callB8ue170006ERKS5_, symObjAddr: 0x387C, symBinAddr: 0x10000798C, symSize: 0x38 }
  - { offsetInCU: 0xB4DF, offset: 0xB4DF, size: 0x8, addend: 0x0, symName: __ZNKSt3__116reverse_iteratorINS0_IP4bodyEEEptB8ue170006Ev, symObjAddr: 0x38B4, symBinAddr: 0x1000079C4, symSize: 0x24 }
  - { offsetInCU: 0xB503, offset: 0xB503, size: 0x8, addend: 0x0, symName: __ZNKSt3__116reverse_iteratorINS0_IP4bodyEEEdeB8ue170006Ev, symObjAddr: 0x38D8, symBinAddr: 0x1000079E8, symSize: 0x34 }
  - { offsetInCU: 0xB535, offset: 0xB535, size: 0x8, addend: 0x0, symName: __ZNSt3__116reverse_iteratorIP4bodyEmmB8ue170006Ev, symObjAddr: 0x390C, symBinAddr: 0x100007A1C, symSize: 0x20 }
  - { offsetInCU: 0xB559, offset: 0xB559, size: 0x8, addend: 0x0, symName: __ZNSt3__116reverse_iteratorINS0_IP4bodyEEEC2B8ue170006ES3_, symObjAddr: 0x392C, symBinAddr: 0x100007A3C, symSize: 0x2C }
  - { offsetInCU: 0xB58F, offset: 0xB58F, size: 0x8, addend: 0x0, symName: __ZNSt3__116reverse_iteratorIP4bodyEC2B8ue170006ES2_, symObjAddr: 0x3958, symBinAddr: 0x100007A68, symSize: 0x28 }
  - { offsetInCU: 0xB5C6, offset: 0xB5C6, size: 0x8, addend: 0x0, symName: __ZNSt3__114__split_bufferI4bodyRNS_9allocatorIS1_EEED2Ev, symObjAddr: 0x3980, symBinAddr: 0x100007A90, symSize: 0x8C }
  - { offsetInCU: 0xB5EF, offset: 0xB5EF, size: 0x8, addend: 0x0, symName: __ZNSt3__114__split_bufferI4bodyRNS_9allocatorIS1_EEE5clearB8ue170006Ev, symObjAddr: 0x3A0C, symBinAddr: 0x100007B1C, symSize: 0x28 }
  - { offsetInCU: 0xB613, offset: 0xB613, size: 0x8, addend: 0x0, symName: __ZNKSt3__114__split_bufferI4bodyRNS_9allocatorIS1_EEE8capacityB8ue170006Ev, symObjAddr: 0x3A34, symBinAddr: 0x100007B44, symSize: 0x40 }
  - { offsetInCU: 0xB637, offset: 0xB637, size: 0x8, addend: 0x0, symName: __ZNSt3__114__split_bufferI4bodyRNS_9allocatorIS1_EEE17__destruct_at_endB8ue170006EPS1_, symObjAddr: 0x3A74, symBinAddr: 0x100007B84, symSize: 0x2C }
  - { offsetInCU: 0xB669, offset: 0xB669, size: 0x8, addend: 0x0, symName: __ZNSt3__114__split_bufferI4bodyRNS_9allocatorIS1_EEE17__destruct_at_endB8ue170006EPS1_NS_17integral_constantIbLb0EEE, symObjAddr: 0x3AA0, symBinAddr: 0x100007BB0, symSize: 0x80 }
  - { offsetInCU: 0xB6A7, offset: 0xB6A7, size: 0x8, addend: 0x0, symName: __ZNKSt3__114__split_bufferI4bodyRNS_9allocatorIS1_EEE9__end_capB8ue170006Ev, symObjAddr: 0x3B20, symBinAddr: 0x100007C30, symSize: 0x28 }
  - { offsetInCU: 0xB6CB, offset: 0xB6CB, size: 0x8, addend: 0x0, symName: __ZNKSt3__117__compressed_pairIP4bodyRNS_9allocatorIS1_EEE5firstB8ue170006Ev, symObjAddr: 0x3B48, symBinAddr: 0x100007C58, symSize: 0x24 }
  - { offsetInCU: 0xB6EF, offset: 0xB6EF, size: 0x8, addend: 0x0, symName: __ZNKSt3__112basic_stringIcNS_11char_traitsIcEENS_9allocatorIcEEE4sizeB8ue170006Ev, symObjAddr: 0x3B6C, symBinAddr: 0x100007C7C, symSize: 0x54 }
  - { offsetInCU: 0xB713, offset: 0xB713, size: 0x8, addend: 0x0, symName: __ZNKSt3__112basic_stringIcNS_11char_traitsIcEENS_9allocatorIcEEE9__is_longB8ue170006Ev, symObjAddr: 0x3BC0, symBinAddr: 0x100007CD0, symSize: 0x38 }
  - { offsetInCU: 0xB737, offset: 0xB737, size: 0x8, addend: 0x0, symName: __ZNKSt3__112basic_stringIcNS_11char_traitsIcEENS_9allocatorIcEEE15__get_long_sizeB8ue170006Ev, symObjAddr: 0x3BF8, symBinAddr: 0x100007D08, symSize: 0x28 }
  - { offsetInCU: 0xB75B, offset: 0xB75B, size: 0x8, addend: 0x0, symName: __ZNKSt3__112basic_stringIcNS_11char_traitsIcEENS_9allocatorIcEEE16__get_short_sizeB8ue170006Ev, symObjAddr: 0x3C20, symBinAddr: 0x100007D30, symSize: 0x34 }
  - { offsetInCU: 0xB77F, offset: 0xB77F, size: 0x8, addend: 0x0, symName: __ZNKSt3__117__compressed_pairINS_12basic_stringIcNS_11char_traitsIcEENS_9allocatorIcEEE5__repES5_E5firstB8ue170006Ev, symObjAddr: 0x3C54, symBinAddr: 0x100007D64, symSize: 0x24 }
  - { offsetInCU: 0xB7A3, offset: 0xB7A3, size: 0x8, addend: 0x0, symName: __ZNKSt3__122__compressed_pair_elemINS_12basic_stringIcNS_11char_traitsIcEENS_9allocatorIcEEE5__repELi0ELb0EE5__getB8ue170006Ev, symObjAddr: 0x3C78, symBinAddr: 0x100007D88, symSize: 0x14 }
  - { offsetInCU: 0x4681, offset: 0x10EA4, size: 0x8, addend: 0x0, symName: __ZNSt3__1neB8ue170006IcNS_11char_traitsIcEENS_9allocatorIcEEEEbRKNS_12basic_stringIT_T0_T1_EESB_, symObjAddr: 0xF2C, symBinAddr: 0x100008C04, symSize: 0x34 }
  - { offsetInCU: 0x46D9, offset: 0x10EFC, size: 0x8, addend: 0x0, symName: __ZNSt3__1neB8ue170006IcNS_11char_traitsIcEENS_9allocatorIcEEEEbRKNS_12basic_stringIT_T0_T1_EEPKS6_, symObjAddr: 0x1024, symBinAddr: 0x100008CD0, symSize: 0x34 }
  - { offsetInCU: 0x4731, offset: 0x10F54, size: 0x8, addend: 0x0, symName: __ZNSt3__1miB8ue170006IPK10posChangedS3_EEDTmicldtfp_4baseEcldtfp0_4baseEERKNS_11__wrap_iterIT_EERKNS5_IT0_EE, symObjAddr: 0x1520, symBinAddr: 0x100008DDC, symSize: 0x48 }
  - { offsetInCU: 0x477D, offset: 0x10FA0, size: 0x8, addend: 0x0, symName: __ZNSt3__14moveB8ue170006IP10posChangedS2_EET0_T_S4_S3_, symObjAddr: 0x15E0, symBinAddr: 0x100008E9C, symSize: 0x40 }
  - { offsetInCU: 0x47D7, offset: 0x10FFA, size: 0x8, addend: 0x0, symName: __ZNSt3__16__moveB8ue170006INS_17_ClassicAlgPolicyEP10posChangedS3_S3_EENS_4pairIT0_T2_EES5_T1_S6_, symObjAddr: 0x19DC, symBinAddr: 0x10000905C, symSize: 0x44 }
  - { offsetInCU: 0x4843, offset: 0x11066, size: 0x8, addend: 0x0, symName: __ZNSt3__123__dispatch_copy_or_moveB8ue170006INS_17_ClassicAlgPolicyENS_11__move_loopIS1_EENS_14__move_trivialEP10posChangedS6_S6_EENS_4pairIT2_T4_EES8_T3_S9_, symObjAddr: 0x1A20, symBinAddr: 0x1000090A0, symSize: 0x44 }
  - { offsetInCU: 0x48C1, offset: 0x110E4, size: 0x8, addend: 0x0, symName: __ZNSt3__121__unwrap_and_dispatchB8ue170006INS_10__overloadINS_11__move_loopINS_17_ClassicAlgPolicyEEENS_14__move_trivialEEEP10posChangedS8_S8_Li0EEENS_4pairIT0_T2_EESA_T1_SB_, symObjAddr: 0x1A64, symBinAddr: 0x1000090E4, symSize: 0xB4 }
  - { offsetInCU: 0x494F, offset: 0x11172, size: 0x8, addend: 0x0, symName: __ZNSt3__114__unwrap_rangeB8ue170006IP10posChangedS2_EENS_4pairIT0_S4_EET_S6_, symObjAddr: 0x1B18, symBinAddr: 0x100009198, symSize: 0x60 }
  - { offsetInCU: 0x4ACA, offset: 0x112ED, size: 0x8, addend: 0x0, symName: __ZNSt3__113__unwrap_iterB8ue170006IP10posChangedNS_18__unwrap_iter_implIS2_Lb1EEELi0EEEDTclsrT0_8__unwrapclsr3stdE7declvalIT_EEEES6_, symObjAddr: 0x1C08, symBinAddr: 0x100009288, symSize: 0x24 }
  - { offsetInCU: 0x4B0E, offset: 0x11331, size: 0x8, addend: 0x0, symName: __ZNSt3__19make_pairB8ue170006IP10posChangedS2_EENS_4pairINS_18__unwrap_ref_decayIT_E4typeENS4_IT0_E4typeEEEOS5_OS8_, symObjAddr: 0x1C2C, symBinAddr: 0x1000092AC, symSize: 0x38 }
  - { offsetInCU: 0x4B5D, offset: 0x11380, size: 0x8, addend: 0x0, symName: __ZNSt3__114__rewrap_rangeB8ue170006IP10posChangedS2_EET_S3_T0_, symObjAddr: 0x1C64, symBinAddr: 0x1000092E4, symSize: 0x2C }
  - { offsetInCU: 0x4BA9, offset: 0x113CC, size: 0x8, addend: 0x0, symName: __ZNSt3__113__rewrap_iterB8ue170006IP10posChangedS2_NS_18__unwrap_iter_implIS2_Lb1EEEEET_S5_T0_, symObjAddr: 0x1C90, symBinAddr: 0x100009310, symSize: 0x3C }
  - { offsetInCU: 0x4CEE, offset: 0x11511, size: 0x8, addend: 0x0, symName: __ZNSt3__1eqB8ue170006INS_9allocatorIcEEEEbRKNS_12basic_stringIcNS_11char_traitsIcEET_EES9_, symObjAddr: 0x2258, symBinAddr: 0x10000985C, symSize: 0x148 }
  - { offsetInCU: 0x4D61, offset: 0x11584, size: 0x8, addend: 0x0, symName: __ZNSt3__112__to_addressB8ue170006IKcEEPT_S3_, symObjAddr: 0x23FC, symBinAddr: 0x100009A00, symSize: 0x14 }
  - { offsetInCU: 0x4DC9, offset: 0x115EC, size: 0x8, addend: 0x0, symName: __ZNSt3__119__allocate_at_leastB8ue170006INS_9allocatorI10posChangedEEEENS_19__allocation_resultINS_16allocator_traitsIT_E7pointerEEERS6_m, symObjAddr: 0x2EC8, symBinAddr: 0x10000A298, symSize: 0x40 }
  - { offsetInCU: 0x4E0C, offset: 0x1162F, size: 0x8, addend: 0x0, symName: __ZNSt3__142__uninitialized_allocator_move_if_noexceptB8ue170006INS_9allocatorI10posChangedEENS_16reverse_iteratorIPS2_EES6_S6_EET2_RT_T0_T1_S7_, symObjAddr: 0x31D0, symBinAddr: 0x10000A44C, symSize: 0x12C }
  - { offsetInCU: 0x4EAC, offset: 0x116CF, size: 0x8, addend: 0x0, symName: __ZNSt3__14swapB8ue170006IP10posChangedEENS_9enable_ifIXaasr21is_move_constructibleIT_EE5valuesr18is_move_assignableIS4_EE5valueEvE4typeERS4_S7_, symObjAddr: 0x3348, symBinAddr: 0x10000A5C4, symSize: 0x3C }
  - { offsetInCU: 0x4EFD, offset: 0x11720, size: 0x8, addend: 0x0, symName: __ZNSt3__122__make_exception_guardB8ue170006INS_29_AllocatorDestroyRangeReverseINS_9allocatorI10posChangedEENS_16reverse_iteratorIPS3_EEEEEENS_28__exception_guard_exceptionsIT_EESA_, symObjAddr: 0x3430, symBinAddr: 0x10000A6AC, symSize: 0x4C }
  - { offsetInCU: 0x4F33, offset: 0x11756, size: 0x8, addend: 0x0, symName: __ZNSt3__1neB8ue170006IP10posChangedS2_EEbRKNS_16reverse_iteratorIT_EERKNS3_IT0_EE, symObjAddr: 0x34C0, symBinAddr: 0x10000A73C, symSize: 0x48 }
  - { offsetInCU: 0x4F7F, offset: 0x117A2, size: 0x8, addend: 0x0, symName: __ZNSt3__112__to_addressB8ue170006INS_16reverse_iteratorIP10posChangedEEvEEu7__decayIDTclsr19__to_address_helperIT_EE6__callclsr3stdE7declvalIRKS5_EEEEES7_, symObjAddr: 0x353C, symBinAddr: 0x10000A7B8, symSize: 0x24 }
  - { offsetInCU: 0x4FDE, offset: 0x11801, size: 0x8, addend: 0x0, symName: __ZNSt3__119__allocator_destroyB8ue170006INS_9allocatorI10posChangedEENS_16reverse_iteratorINS4_IPS2_EEEES7_EEvRT_T0_T1_, symObjAddr: 0x3914, symBinAddr: 0x10000AB14, symSize: 0x70 }
  - { offsetInCU: 0x5043, offset: 0x11866, size: 0x8, addend: 0x0, symName: __ZNSt3__1neB8ue170006INS_16reverse_iteratorIP10posChangedEES4_EEbRKNS1_IT_EERKNS1_IT0_EE, symObjAddr: 0x39C0, symBinAddr: 0x10000ABC0, symSize: 0x60 }
  - { offsetInCU: 0x508F, offset: 0x118B2, size: 0x8, addend: 0x0, symName: __ZNSt3__112__to_addressB8ue170006INS_16reverse_iteratorINS1_IP10posChangedEEEEvEEu7__decayIDTclsr19__to_address_helperIT_EE6__callclsr3stdE7declvalIRKS6_EEEEES8_, symObjAddr: 0x3A20, symBinAddr: 0x10000AC20, symSize: 0x24 }
  - { offsetInCU: 0x5452, offset: 0x11C75, size: 0x8, addend: 0x0, symName: __ZNSt3__16vectorI10posChangedNS_9allocatorIS1_EEE26__swap_out_circular_bufferERNS_14__split_bufferIS1_RS3_EE, symObjAddr: 0x2934, symBinAddr: 0x100009F38, symSize: 0x110 }
  - { offsetInCU: 0x7267, offset: 0x13A8A, size: 0x8, addend: 0x0, symName: __Z14nextMoveIsRect9SDL_FRectS_S_NSt3__112basic_stringIcNS0_11char_traitsIcEENS0_9allocatorIcEEEE, symObjAddr: 0x0, symBinAddr: 0x100007E34, symSize: 0x21C }
  - { offsetInCU: 0x7316, offset: 0x13B39, size: 0x8, addend: 0x0, symName: __Z12onButtonMoveNSt3__112basic_stringIcNS_11char_traitsIcEENS_9allocatorIcEEEE, symObjAddr: 0x2C8, symBinAddr: 0x100008050, symSize: 0x3E8 }
  - { offsetInCU: 0x73B2, offset: 0x13BD5, size: 0x8, addend: 0x0, symName: __Z17getNewCoordinatesv, symObjAddr: 0x6B0, symBinAddr: 0x100008438, symSize: 0x18C }
  - { offsetInCU: 0x73FA, offset: 0x13C1D, size: 0x8, addend: 0x0, symName: __Z13findInVectPos9SDL_FRect, symObjAddr: 0x83C, symBinAddr: 0x1000085C4, symSize: 0x15C }
  - { offsetInCU: 0x7449, offset: 0x13C6C, size: 0x8, addend: 0x0, symName: __ZNSt3__16vectorI10posChangedNS_9allocatorIS1_EEEixB8ue170006Em, symObjAddr: 0x9F4, symBinAddr: 0x100008720, symSize: 0x24 }
  - { offsetInCU: 0x747E, offset: 0x13CA1, size: 0x8, addend: 0x0, symName: __Z16removeUselessPosv, symObjAddr: 0xA18, symBinAddr: 0x100008744, symSize: 0x1E4 }
  - { offsetInCU: 0x74DF, offset: 0x13D02, size: 0x8, addend: 0x0, symName: __ZNSt3__16vectorI10posChangedNS_9allocatorIS1_EEE5eraseB8ue170006ENS_11__wrap_iterIPKS1_EE, symObjAddr: 0xC50, symBinAddr: 0x100008928, symSize: 0x94 }
  - { offsetInCU: 0x7532, offset: 0x13D55, size: 0x8, addend: 0x0, symName: __ZNSt3__16vectorI10posChangedNS_9allocatorIS1_EEE5beginB8ue170006Ev, symObjAddr: 0xCE4, symBinAddr: 0x1000089BC, symSize: 0x30 }
  - { offsetInCU: 0x7562, offset: 0x13D85, size: 0x8, addend: 0x0, symName: __ZNSt3__111__wrap_iterIPK10posChangedEC1B8ue170006IPS1_EERKNS0_IT_EEPNS_9enable_ifIXsr14is_convertibleIS7_S3_EE5valueEvE4typeE, symObjAddr: 0xD14, symBinAddr: 0x1000089EC, symSize: 0x3C }
  - { offsetInCU: 0x75AB, offset: 0x13DCE, size: 0x8, addend: 0x0, symName: __Z18checkIfOutOfWindowi, symObjAddr: 0xD50, symBinAddr: 0x100008A28, symSize: 0x1DC }
  - { offsetInCU: 0x75D9, offset: 0x13DFC, size: 0x8, addend: 0x0, symName: __ZN10posChangedC1Ev, symObjAddr: 0xF60, symBinAddr: 0x100008C38, symSize: 0x2C }
  - { offsetInCU: 0x7603, offset: 0x13E26, size: 0x8, addend: 0x0, symName: __ZNSt3__16vectorI10posChangedNS_9allocatorIS1_EEE9push_backB8ue170006ERKS1_, symObjAddr: 0xF8C, symBinAddr: 0x100008C64, symSize: 0x6C }
  - { offsetInCU: 0x7638, offset: 0x13E5B, size: 0x8, addend: 0x0, symName: __ZNKSt3__112basic_stringIcNS_11char_traitsIcEENS_9allocatorIcEEE5c_strB8ue170006Ev, symObjAddr: 0x1058, symBinAddr: 0x100008D04, symSize: 0x24 }
  - { offsetInCU: 0x765C, offset: 0x13E7F, size: 0x8, addend: 0x0, symName: __ZN10posChangedC2Ev, symObjAddr: 0x107C, symBinAddr: 0x100008D28, symSize: 0x30 }
  - { offsetInCU: 0x7686, offset: 0x13EA9, size: 0x8, addend: 0x0, symName: __ZNSt3__16vectorI10posChangedNS_9allocatorIS1_EEE11__make_iterB8ue170006EPS1_, symObjAddr: 0x149C, symBinAddr: 0x100008D58, symSize: 0x30 }
  - { offsetInCU: 0x76B9, offset: 0x13EDC, size: 0x8, addend: 0x0, symName: __ZNSt3__111__wrap_iterIP10posChangedEC1B8ue170006ES2_, symObjAddr: 0x14CC, symBinAddr: 0x100008D88, symSize: 0x34 }
  - { offsetInCU: 0x76EF, offset: 0x13F12, size: 0x8, addend: 0x0, symName: __ZNSt3__111__wrap_iterIP10posChangedEC2B8ue170006ES2_, symObjAddr: 0x1500, symBinAddr: 0x100008DBC, symSize: 0x20 }
  - { offsetInCU: 0x7725, offset: 0x13F48, size: 0x8, addend: 0x0, symName: __ZNKSt3__16vectorI10posChangedNS_9allocatorIS1_EEE6cbeginB8ue170006Ev, symObjAddr: 0x1568, symBinAddr: 0x100008E24, symSize: 0x2C }
  - { offsetInCU: 0x7749, offset: 0x13F6C, size: 0x8, addend: 0x0, symName: __ZNSt3__16vectorI10posChangedNS_9allocatorIS1_EEE17__destruct_at_endB8ue170006EPS1_, symObjAddr: 0x1594, symBinAddr: 0x100008E50, symSize: 0x4C }
  - { offsetInCU: 0x778B, offset: 0x13FAE, size: 0x8, addend: 0x0, symName: __ZNKSt3__111__wrap_iterIPK10posChangedE4baseB8ue170006Ev, symObjAddr: 0x1620, symBinAddr: 0x100008EDC, symSize: 0x18 }
  - { offsetInCU: 0x77AF, offset: 0x13FD2, size: 0x8, addend: 0x0, symName: __ZNKSt3__16vectorI10posChangedNS_9allocatorIS1_EEE5beginB8ue170006Ev, symObjAddr: 0x1638, symBinAddr: 0x100008EF4, symSize: 0x30 }
  - { offsetInCU: 0x77D5, offset: 0x13FF8, size: 0x8, addend: 0x0, symName: __ZNKSt3__16vectorI10posChangedNS_9allocatorIS1_EEE11__make_iterB8ue170006EPKS1_, symObjAddr: 0x1668, symBinAddr: 0x100008F24, symSize: 0x30 }
  - { offsetInCU: 0x7808, offset: 0x1402B, size: 0x8, addend: 0x0, symName: __ZNSt3__111__wrap_iterIPK10posChangedEC1B8ue170006ES3_, symObjAddr: 0x1698, symBinAddr: 0x100008F54, symSize: 0x34 }
  - { offsetInCU: 0x783E, offset: 0x14061, size: 0x8, addend: 0x0, symName: __ZNSt3__111__wrap_iterIPK10posChangedEC2B8ue170006ES3_, symObjAddr: 0x16CC, symBinAddr: 0x100008F88, symSize: 0x20 }
  - { offsetInCU: 0x7874, offset: 0x14097, size: 0x8, addend: 0x0, symName: __ZNKSt3__16vectorI10posChangedNS_9allocatorIS1_EEE17__annotate_shrinkB8ue170006Em, symObjAddr: 0x1778, symBinAddr: 0x100008FA8, symSize: 0xB4 }
  - { offsetInCU: 0x78CA, offset: 0x140ED, size: 0x8, addend: 0x0, symName: __ZNKSt3__111__move_loopINS_17_ClassicAlgPolicyEEclB8ue170006IP10posChangedS5_S5_EENS_4pairIT_T1_EES7_T0_S8_, symObjAddr: 0x1B78, symBinAddr: 0x1000091F8, symSize: 0x90 }
  - { offsetInCU: 0x7938, offset: 0x1415B, size: 0x8, addend: 0x0, symName: __ZNSt3__18_IterOpsINS_17_ClassicAlgPolicyEE11__iter_moveB8ue170006IRP10posChangedEENS_9enable_ifIXsr12is_referenceIDTdeclsr3stdE7declvalIRT_EEEEE5valueEDTclsr3stdE4movedeclsr3stdE7declvalIS9_EEEEE4typeEOS8_, symObjAddr: 0x1CCC, symBinAddr: 0x10000934C, symSize: 0x28 }
  - { offsetInCU: 0x7963, offset: 0x14186, size: 0x8, addend: 0x0, symName: __ZN10posChangedaSEOS_, symObjAddr: 0x1CF4, symBinAddr: 0x100009374, symSize: 0x48 }
  - { offsetInCU: 0x7992, offset: 0x141B5, size: 0x8, addend: 0x0, symName: __ZNSt3__18_IterOpsINS_17_ClassicAlgPolicyEE25__validate_iter_referenceB8ue170006IRP10posChangedEEvv, symObjAddr: 0x1D3C, symBinAddr: 0x1000093BC, symSize: 0x4 }
  - { offsetInCU: 0x79AF, offset: 0x141D2, size: 0x8, addend: 0x0, symName: __ZNSt3__112basic_stringIcNS_11char_traitsIcEENS_9allocatorIcEEEaSB8ue170006EOS5_, symObjAddr: 0x1D40, symBinAddr: 0x1000093C0, symSize: 0x34 }
  - { offsetInCU: 0x79E2, offset: 0x14205, size: 0x8, addend: 0x0, symName: __ZNSt3__112basic_stringIcNS_11char_traitsIcEENS_9allocatorIcEEE13__move_assignB8ue170006ERS5_NS_17integral_constantIbLb1EEE, symObjAddr: 0x1D74, symBinAddr: 0x1000093F4, symSize: 0xC8 }
  - { offsetInCU: 0x7A22, offset: 0x14245, size: 0x8, addend: 0x0, symName: __ZNSt3__116allocator_traitsINS_9allocatorIcEEE10deallocateB8ue170006ERS2_Pcm, symObjAddr: 0x1E3C, symBinAddr: 0x1000094BC, symSize: 0x34 }
  - { offsetInCU: 0x7A63, offset: 0x14286, size: 0x8, addend: 0x0, symName: __ZNSt3__112basic_stringIcNS_11char_traitsIcEENS_9allocatorIcEEE7__allocB8ue170006Ev, symObjAddr: 0x1E70, symBinAddr: 0x1000094F0, symSize: 0x24 }
  - { offsetInCU: 0x7A87, offset: 0x142AA, size: 0x8, addend: 0x0, symName: __ZNSt3__112basic_stringIcNS_11char_traitsIcEENS_9allocatorIcEEE18__get_long_pointerB8ue170006Ev, symObjAddr: 0x1E94, symBinAddr: 0x100009514, symSize: 0x28 }
  - { offsetInCU: 0x7AAB, offset: 0x142CE, size: 0x8, addend: 0x0, symName: __ZNKSt3__112basic_stringIcNS_11char_traitsIcEENS_9allocatorIcEEE14__get_long_capB8ue170006Ev, symObjAddr: 0x1EBC, symBinAddr: 0x10000953C, symSize: 0x30 }
  - { offsetInCU: 0x7ACF, offset: 0x142F2, size: 0x8, addend: 0x0, symName: __ZNSt3__112basic_stringIcNS_11char_traitsIcEENS_9allocatorIcEEE19__move_assign_allocB8ue170006ERS5_, symObjAddr: 0x1EEC, symBinAddr: 0x10000956C, symSize: 0x2C }
  - { offsetInCU: 0x7B02, offset: 0x14325, size: 0x8, addend: 0x0, symName: __ZNSt3__112basic_stringIcNS_11char_traitsIcEENS_9allocatorIcEEE16__set_short_sizeB8ue170006Em, symObjAddr: 0x1F18, symBinAddr: 0x100009598, symSize: 0x78 }
  - { offsetInCU: 0x7B35, offset: 0x14358, size: 0x8, addend: 0x0, symName: __ZNSt3__111char_traitsIcE6assignB8ue170006ERcRKc, symObjAddr: 0x1F90, symBinAddr: 0x100009610, symSize: 0x24 }
  - { offsetInCU: 0x7B65, offset: 0x14388, size: 0x8, addend: 0x0, symName: __ZNSt3__112basic_stringIcNS_11char_traitsIcEENS_9allocatorIcEEE19__get_short_pointerB8ue170006Ev, symObjAddr: 0x1FB4, symBinAddr: 0x100009634, symSize: 0x28 }
  - { offsetInCU: 0x7B89, offset: 0x143AC, size: 0x8, addend: 0x0, symName: __ZNSt3__19allocatorIcE10deallocateB8ue170006EPcm, symObjAddr: 0x1FDC, symBinAddr: 0x10000965C, symSize: 0x40 }
  - { offsetInCU: 0x7BC9, offset: 0x143EC, size: 0x8, addend: 0x0, symName: __ZNSt3__117__compressed_pairINS_12basic_stringIcNS_11char_traitsIcEENS_9allocatorIcEEE5__repES5_E6secondB8ue170006Ev, symObjAddr: 0x2098, symBinAddr: 0x10000969C, symSize: 0x24 }
  - { offsetInCU: 0x7BED, offset: 0x14410, size: 0x8, addend: 0x0, symName: __ZNSt3__122__compressed_pair_elemINS_9allocatorIcEELi1ELb1EE5__getB8ue170006Ev, symObjAddr: 0x20BC, symBinAddr: 0x1000096C0, symSize: 0x14 }
  - { offsetInCU: 0x7C11, offset: 0x14434, size: 0x8, addend: 0x0, symName: __ZNSt3__112basic_stringIcNS_11char_traitsIcEENS_9allocatorIcEEE19__move_assign_allocB8ue170006ERS5_NS_17integral_constantIbLb1EEE, symObjAddr: 0x20D0, symBinAddr: 0x1000096D4, symSize: 0x38 }
  - { offsetInCU: 0x7C4F, offset: 0x14472, size: 0x8, addend: 0x0, symName: __ZNSt3__114pointer_traitsIPcE10pointer_toB8ue170006ERc, symObjAddr: 0x2108, symBinAddr: 0x10000970C, symSize: 0x14 }
  - { offsetInCU: 0x7C71, offset: 0x14494, size: 0x8, addend: 0x0, symName: __ZNSt3__118__unwrap_iter_implIP10posChangedLb1EE8__unwrapB8ue170006ES2_, symObjAddr: 0x211C, symBinAddr: 0x100009720, symSize: 0x24 }
  - { offsetInCU: 0x7C98, offset: 0x144BB, size: 0x8, addend: 0x0, symName: __ZNSt3__14pairIP10posChangedS2_EC1B8ue170006IS2_S2_LPv0EEEOT_OT0_, symObjAddr: 0x2140, symBinAddr: 0x100009744, symSize: 0x3C }
  - { offsetInCU: 0x7CF4, offset: 0x14517, size: 0x8, addend: 0x0, symName: __ZNSt3__14pairIP10posChangedS2_EC2B8ue170006IS2_S2_LPv0EEEOT_OT0_, symObjAddr: 0x217C, symBinAddr: 0x100009780, symSize: 0x34 }
  - { offsetInCU: 0x7D50, offset: 0x14573, size: 0x8, addend: 0x0, symName: __ZNSt3__118__unwrap_iter_implIP10posChangedLb1EE8__rewrapB8ue170006ES2_S2_, symObjAddr: 0x21B0, symBinAddr: 0x1000097B4, symSize: 0x50 }
  - { offsetInCU: 0x7D80, offset: 0x145A3, size: 0x8, addend: 0x0, symName: __ZNSt3__111__wrap_iterIPK10posChangedEC2B8ue170006IPS1_EERKNS0_IT_EEPNS_9enable_ifIXsr14is_convertibleIS7_S3_EE5valueEvE4typeE, symObjAddr: 0x2200, symBinAddr: 0x100009804, symSize: 0x40 }
  - { offsetInCU: 0x7DC9, offset: 0x145EC, size: 0x8, addend: 0x0, symName: __ZNKSt3__111__wrap_iterIP10posChangedE4baseB8ue170006Ev, symObjAddr: 0x2240, symBinAddr: 0x100009844, symSize: 0x18 }
  - { offsetInCU: 0x7DED, offset: 0x14610, size: 0x8, addend: 0x0, symName: __ZNKSt3__112basic_stringIcNS_11char_traitsIcEENS_9allocatorIcEEE4dataB8ue170006Ev, symObjAddr: 0x23A0, symBinAddr: 0x1000099A4, symSize: 0x28 }
  - { offsetInCU: 0x7E11, offset: 0x14634, size: 0x8, addend: 0x0, symName: __ZNSt3__111char_traitsIcE7compareB8ue170006EPKcS3_m, symObjAddr: 0x23C8, symBinAddr: 0x1000099CC, symSize: 0x34 }
  - { offsetInCU: 0x7E4F, offset: 0x14672, size: 0x8, addend: 0x0, symName: __ZNKSt3__112basic_stringIcNS_11char_traitsIcEENS_9allocatorIcEEE13__get_pointerB8ue170006Ev, symObjAddr: 0x2410, symBinAddr: 0x100009A14, symSize: 0x54 }
  - { offsetInCU: 0x7E73, offset: 0x14696, size: 0x8, addend: 0x0, symName: __ZNKSt3__112basic_stringIcNS_11char_traitsIcEENS_9allocatorIcEEE18__get_long_pointerB8ue170006Ev, symObjAddr: 0x2464, symBinAddr: 0x100009A68, symSize: 0x28 }
  - { offsetInCU: 0x7E97, offset: 0x146BA, size: 0x8, addend: 0x0, symName: __ZNKSt3__112basic_stringIcNS_11char_traitsIcEENS_9allocatorIcEEE19__get_short_pointerB8ue170006Ev, symObjAddr: 0x248C, symBinAddr: 0x100009A90, symSize: 0x28 }
  - { offsetInCU: 0x7EBB, offset: 0x146DE, size: 0x8, addend: 0x0, symName: __ZNSt3__114pointer_traitsIPKcE10pointer_toB8ue170006ERS1_, symObjAddr: 0x24B4, symBinAddr: 0x100009AB8, symSize: 0x14 }
  - { offsetInCU: 0x7EDD, offset: 0x14700, size: 0x8, addend: 0x0, symName: __ZNSt3__16vectorI10posChangedNS_9allocatorIS1_EEE9__end_capB8ue170006Ev, symObjAddr: 0x24C8, symBinAddr: 0x100009ACC, symSize: 0x28 }
  - { offsetInCU: 0x7F01, offset: 0x14724, size: 0x8, addend: 0x0, symName: __ZNSt3__16vectorI10posChangedNS_9allocatorIS1_EEE22__construct_one_at_endB8ue170006IJRKS1_EEEvDpOT_, symObjAddr: 0x24F0, symBinAddr: 0x100009AF4, symSize: 0x90 }
  - { offsetInCU: 0x7F4E, offset: 0x14771, size: 0x8, addend: 0x0, symName: __ZNSt3__16vectorI10posChangedNS_9allocatorIS1_EEE21__push_back_slow_pathIRKS1_EEvOT_, symObjAddr: 0x2580, symBinAddr: 0x100009B84, symSize: 0xD8 }
  - { offsetInCU: 0x7FAA, offset: 0x147CD, size: 0x8, addend: 0x0, symName: __ZNSt3__117__compressed_pairIP10posChangedNS_9allocatorIS1_EEE5firstB8ue170006Ev, symObjAddr: 0x2658, symBinAddr: 0x100009C5C, symSize: 0x24 }
  - { offsetInCU: 0x7FCE, offset: 0x147F1, size: 0x8, addend: 0x0, symName: __ZNSt3__122__compressed_pair_elemIP10posChangedLi0ELb0EE5__getB8ue170006Ev, symObjAddr: 0x267C, symBinAddr: 0x100009C80, symSize: 0x14 }
  - { offsetInCU: 0x800B, offset: 0x1482E, size: 0x8, addend: 0x0, symName: __ZNSt3__16vectorI10posChangedNS_9allocatorIS1_EEE21_ConstructTransactionC1B8ue170006ERS4_m, symObjAddr: 0x2690, symBinAddr: 0x100009C94, symSize: 0x3C }
  - { offsetInCU: 0x8051, offset: 0x14874, size: 0x8, addend: 0x0, symName: __ZNSt3__116allocator_traitsINS_9allocatorI10posChangedEEE9constructB8ue170006IS2_JRKS2_EvEEvRS3_PT_DpOT0_, symObjAddr: 0x26CC, symBinAddr: 0x100009CD0, symSize: 0x34 }
  - { offsetInCU: 0x80A7, offset: 0x148CA, size: 0x8, addend: 0x0, symName: __ZNSt3__16vectorI10posChangedNS_9allocatorIS1_EEE21_ConstructTransactionD1B8ue170006Ev, symObjAddr: 0x2700, symBinAddr: 0x100009D04, symSize: 0x2C }
  - { offsetInCU: 0x80CF, offset: 0x148F2, size: 0x8, addend: 0x0, symName: __ZNSt3__16vectorI10posChangedNS_9allocatorIS1_EEE21_ConstructTransactionC2B8ue170006ERS4_m, symObjAddr: 0x272C, symBinAddr: 0x100009D30, symSize: 0x44 }
  - { offsetInCU: 0x8115, offset: 0x14938, size: 0x8, addend: 0x0, symName: __ZNSt3__19allocatorI10posChangedE9constructB8ue170006IS1_JRKS1_EEEvPT_DpOT0_, symObjAddr: 0x2770, symBinAddr: 0x100009D74, symSize: 0x30 }
  - { offsetInCU: 0x8169, offset: 0x1498C, size: 0x8, addend: 0x0, symName: __ZN10posChangedC1ERKS_, symObjAddr: 0x27A0, symBinAddr: 0x100009DA4, symSize: 0x34 }
  - { offsetInCU: 0x819B, offset: 0x149BE, size: 0x8, addend: 0x0, symName: __ZN10posChangedC2ERKS_, symObjAddr: 0x27D4, symBinAddr: 0x100009DD8, symSize: 0x48 }
  - { offsetInCU: 0x81CD, offset: 0x149F0, size: 0x8, addend: 0x0, symName: __ZNSt3__16vectorI10posChangedNS_9allocatorIS1_EEE21_ConstructTransactionD2B8ue170006Ev, symObjAddr: 0x281C, symBinAddr: 0x100009E20, symSize: 0x20 }
  - { offsetInCU: 0x81F5, offset: 0x14A18, size: 0x8, addend: 0x0, symName: __ZNKSt3__16vectorI10posChangedNS_9allocatorIS1_EEE11__recommendB8ue170006Em, symObjAddr: 0x283C, symBinAddr: 0x100009E40, symSize: 0xB4 }
  - { offsetInCU: 0x8248, offset: 0x14A6B, size: 0x8, addend: 0x0, symName: __ZNSt3__114__split_bufferI10posChangedRNS_9allocatorIS1_EEEC1EmmS4_, symObjAddr: 0x28F0, symBinAddr: 0x100009EF4, symSize: 0x44 }
  - { offsetInCU: 0x829C, offset: 0x14ABF, size: 0x8, addend: 0x0, symName: __ZNSt3__114__split_bufferI10posChangedRNS_9allocatorIS1_EEED1Ev, symObjAddr: 0x2A44, symBinAddr: 0x10000A048, symSize: 0x2C }
  - { offsetInCU: 0x82C6, offset: 0x14AE9, size: 0x8, addend: 0x0, symName: __ZNKSt3__16vectorI10posChangedNS_9allocatorIS1_EEE8max_sizeEv, symObjAddr: 0x2A70, symBinAddr: 0x10000A074, symSize: 0x60 }
  - { offsetInCU: 0x82EC, offset: 0x14B0F, size: 0x8, addend: 0x0, symName: __ZNKSt3__16vectorI10posChangedNS_9allocatorIS1_EEE20__throw_length_errorB8ue170006Ev, symObjAddr: 0x2AD0, symBinAddr: 0x10000A0D4, symSize: 0x1C }
  - { offsetInCU: 0x831A, offset: 0x14B3D, size: 0x8, addend: 0x0, symName: __ZNSt3__116allocator_traitsINS_9allocatorI10posChangedEEE8max_sizeB8ue170006IS3_vEEmRKS3_, symObjAddr: 0x2B44, symBinAddr: 0x10000A0F0, symSize: 0x24 }
  - { offsetInCU: 0x8347, offset: 0x14B6A, size: 0x8, addend: 0x0, symName: __ZNKSt3__16vectorI10posChangedNS_9allocatorIS1_EEE7__allocB8ue170006Ev, symObjAddr: 0x2B68, symBinAddr: 0x10000A114, symSize: 0x28 }
  - { offsetInCU: 0x836B, offset: 0x14B8E, size: 0x8, addend: 0x0, symName: __ZNKSt3__19allocatorI10posChangedE8max_sizeB8ue170006Ev, symObjAddr: 0x2C2C, symBinAddr: 0x10000A13C, symSize: 0x14 }
  - { offsetInCU: 0x838F, offset: 0x14BB2, size: 0x8, addend: 0x0, symName: __ZNKSt3__117__compressed_pairIP10posChangedNS_9allocatorIS1_EEE6secondB8ue170006Ev, symObjAddr: 0x2C40, symBinAddr: 0x10000A150, symSize: 0x24 }
  - { offsetInCU: 0x83B3, offset: 0x14BD6, size: 0x8, addend: 0x0, symName: __ZNKSt3__122__compressed_pair_elemINS_9allocatorI10posChangedEELi1ELb1EE5__getB8ue170006Ev, symObjAddr: 0x2C64, symBinAddr: 0x10000A174, symSize: 0x14 }
  - { offsetInCU: 0x83D7, offset: 0x14BFA, size: 0x8, addend: 0x0, symName: __ZNSt3__114__split_bufferI10posChangedRNS_9allocatorIS1_EEEC2EmmS4_, symObjAddr: 0x2DB8, symBinAddr: 0x10000A188, symSize: 0xD4 }
  - { offsetInCU: 0x844D, offset: 0x14C70, size: 0x8, addend: 0x0, symName: __ZNSt3__117__compressed_pairIP10posChangedRNS_9allocatorIS1_EEEC1B8ue170006IDnS5_EEOT_OT0_, symObjAddr: 0x2E8C, symBinAddr: 0x10000A25C, symSize: 0x3C }
  - { offsetInCU: 0x84A3, offset: 0x14CC6, size: 0x8, addend: 0x0, symName: __ZNSt3__114__split_bufferI10posChangedRNS_9allocatorIS1_EEE7__allocB8ue170006Ev, symObjAddr: 0x2F08, symBinAddr: 0x10000A2D8, symSize: 0x28 }
  - { offsetInCU: 0x84C7, offset: 0x14CEA, size: 0x8, addend: 0x0, symName: __ZNSt3__114__split_bufferI10posChangedRNS_9allocatorIS1_EEE9__end_capB8ue170006Ev, symObjAddr: 0x2F30, symBinAddr: 0x10000A300, symSize: 0x28 }
  - { offsetInCU: 0x84EB, offset: 0x14D0E, size: 0x8, addend: 0x0, symName: __ZNSt3__117__compressed_pairIP10posChangedRNS_9allocatorIS1_EEEC2B8ue170006IDnS5_EEOT_OT0_, symObjAddr: 0x2F58, symBinAddr: 0x10000A328, symSize: 0x48 }
  - { offsetInCU: 0x8541, offset: 0x14D64, size: 0x8, addend: 0x0, symName: __ZNSt3__122__compressed_pair_elemIRNS_9allocatorI10posChangedEELi1ELb0EEC2B8ue170006IS4_vEEOT_, symObjAddr: 0x2FBC, symBinAddr: 0x10000A370, symSize: 0x20 }
  - { offsetInCU: 0x8581, offset: 0x14DA4, size: 0x8, addend: 0x0, symName: __ZNSt3__19allocatorI10posChangedE8allocateB8ue170006Em, symObjAddr: 0x2FDC, symBinAddr: 0x10000A390, symSize: 0x58 }
  - { offsetInCU: 0x85B3, offset: 0x14DD6, size: 0x8, addend: 0x0, symName: __ZNSt3__117__compressed_pairIP10posChangedRNS_9allocatorIS1_EEE6secondB8ue170006Ev, symObjAddr: 0x30B4, symBinAddr: 0x10000A3E8, symSize: 0x28 }
  - { offsetInCU: 0x85D7, offset: 0x14DFA, size: 0x8, addend: 0x0, symName: __ZNSt3__122__compressed_pair_elemIRNS_9allocatorI10posChangedEELi1ELb0EE5__getB8ue170006Ev, symObjAddr: 0x30DC, symBinAddr: 0x10000A410, symSize: 0x18 }
  - { offsetInCU: 0x85FB, offset: 0x14E1E, size: 0x8, addend: 0x0, symName: __ZNSt3__117__compressed_pairIP10posChangedRNS_9allocatorIS1_EEE5firstB8ue170006Ev, symObjAddr: 0x30F4, symBinAddr: 0x10000A428, symSize: 0x24 }
  - { offsetInCU: 0x861F, offset: 0x14E42, size: 0x8, addend: 0x0, symName: __ZNSt3__116reverse_iteratorIP10posChangedEC1B8ue170006ES2_, symObjAddr: 0x32FC, symBinAddr: 0x10000A578, symSize: 0x34 }
  - { offsetInCU: 0x8655, offset: 0x14E78, size: 0x8, addend: 0x0, symName: __ZNKSt3__116reverse_iteratorIP10posChangedE4baseB8ue170006Ev, symObjAddr: 0x3330, symBinAddr: 0x10000A5AC, symSize: 0x18 }
  - { offsetInCU: 0x8679, offset: 0x14E9C, size: 0x8, addend: 0x0, symName: __ZNKSt3__16vectorI10posChangedNS_9allocatorIS1_EEE14__annotate_newB8ue170006Em, symObjAddr: 0x3384, symBinAddr: 0x10000A600, symSize: 0xAC }
  - { offsetInCU: 0x86AC, offset: 0x14ECF, size: 0x8, addend: 0x0, symName: __ZNSt3__129_AllocatorDestroyRangeReverseINS_9allocatorI10posChangedEENS_16reverse_iteratorIPS2_EEEC1B8ue170006ERS3_RS6_S9_, symObjAddr: 0x347C, symBinAddr: 0x10000A6F8, symSize: 0x44 }
  - { offsetInCU: 0x8701, offset: 0x14F24, size: 0x8, addend: 0x0, symName: __ZNSt3__116allocator_traitsINS_9allocatorI10posChangedEEE9constructB8ue170006IS2_JS2_EvEEvRS3_PT_DpOT0_, symObjAddr: 0x3508, symBinAddr: 0x10000A784, symSize: 0x34 }
  - { offsetInCU: 0x8757, offset: 0x14F7A, size: 0x8, addend: 0x0, symName: __ZNKSt3__116reverse_iteratorIP10posChangedEdeB8ue170006Ev, symObjAddr: 0x3560, symBinAddr: 0x10000A7DC, symSize: 0x28 }
  - { offsetInCU: 0x8789, offset: 0x14FAC, size: 0x8, addend: 0x0, symName: __ZNSt3__116reverse_iteratorIP10posChangedEppB8ue170006Ev, symObjAddr: 0x3588, symBinAddr: 0x10000A804, symSize: 0x20 }
  - { offsetInCU: 0x87AD, offset: 0x14FD0, size: 0x8, addend: 0x0, symName: __ZNSt3__128__exception_guard_exceptionsINS_29_AllocatorDestroyRangeReverseINS_9allocatorI10posChangedEENS_16reverse_iteratorIPS3_EEEEE10__completeB8ue170006Ev, symObjAddr: 0x35A8, symBinAddr: 0x10000A824, symSize: 0x1C }
  - { offsetInCU: 0x87D1, offset: 0x14FF4, size: 0x8, addend: 0x0, symName: __ZNSt3__128__exception_guard_exceptionsINS_29_AllocatorDestroyRangeReverseINS_9allocatorI10posChangedEENS_16reverse_iteratorIPS3_EEEEED1B8ue170006Ev, symObjAddr: 0x35C4, symBinAddr: 0x10000A840, symSize: 0x2C }
  - { offsetInCU: 0x87F9, offset: 0x1501C, size: 0x8, addend: 0x0, symName: __ZNSt3__128__exception_guard_exceptionsINS_29_AllocatorDestroyRangeReverseINS_9allocatorI10posChangedEENS_16reverse_iteratorIPS3_EEEEEC1B8ue170006ES8_, symObjAddr: 0x35F0, symBinAddr: 0x10000A86C, symSize: 0x34 }
  - { offsetInCU: 0x8830, offset: 0x15053, size: 0x8, addend: 0x0, symName: __ZNSt3__128__exception_guard_exceptionsINS_29_AllocatorDestroyRangeReverseINS_9allocatorI10posChangedEENS_16reverse_iteratorIPS3_EEEEEC2B8ue170006ES8_, symObjAddr: 0x3624, symBinAddr: 0x10000A8A0, symSize: 0x30 }
  - { offsetInCU: 0x8867, offset: 0x1508A, size: 0x8, addend: 0x0, symName: __ZNSt3__129_AllocatorDestroyRangeReverseINS_9allocatorI10posChangedEENS_16reverse_iteratorIPS2_EEEC2B8ue170006ERS3_RS6_S9_, symObjAddr: 0x3654, symBinAddr: 0x10000A8D0, symSize: 0x38 }
  - { offsetInCU: 0x88BC, offset: 0x150DF, size: 0x8, addend: 0x0, symName: __ZNSt3__19allocatorI10posChangedE9constructB8ue170006IS1_JS1_EEEvPT_DpOT0_, symObjAddr: 0x368C, symBinAddr: 0x10000A908, symSize: 0x30 }
  - { offsetInCU: 0x8910, offset: 0x15133, size: 0x8, addend: 0x0, symName: __ZN10posChangedC1EOS_, symObjAddr: 0x36BC, symBinAddr: 0x10000A938, symSize: 0x34 }
  - { offsetInCU: 0x8942, offset: 0x15165, size: 0x8, addend: 0x0, symName: __ZN10posChangedC2EOS_, symObjAddr: 0x36F0, symBinAddr: 0x10000A96C, symSize: 0x48 }
  - { offsetInCU: 0x8979, offset: 0x1519C, size: 0x8, addend: 0x0, symName: __ZNSt3__119__to_address_helperINS_16reverse_iteratorIP10posChangedEEvE6__callB8ue170006ERKS4_, symObjAddr: 0x37B4, symBinAddr: 0x10000A9B4, symSize: 0x38 }
  - { offsetInCU: 0x899B, offset: 0x151BE, size: 0x8, addend: 0x0, symName: __ZNKSt3__116reverse_iteratorIP10posChangedEptB8ue170006Ev, symObjAddr: 0x37EC, symBinAddr: 0x10000A9EC, symSize: 0x24 }
  - { offsetInCU: 0x89BF, offset: 0x151E2, size: 0x8, addend: 0x0, symName: __ZNSt3__128__exception_guard_exceptionsINS_29_AllocatorDestroyRangeReverseINS_9allocatorI10posChangedEENS_16reverse_iteratorIPS3_EEEEED2B8ue170006Ev, symObjAddr: 0x3810, symBinAddr: 0x10000AA10, symSize: 0x50 }
  - { offsetInCU: 0x89E7, offset: 0x1520A, size: 0x8, addend: 0x0, symName: __ZNKSt3__129_AllocatorDestroyRangeReverseINS_9allocatorI10posChangedEENS_16reverse_iteratorIPS2_EEEclB8ue170006Ev, symObjAddr: 0x3860, symBinAddr: 0x10000AA60, symSize: 0xB4 }
  - { offsetInCU: 0x8A0C, offset: 0x1522F, size: 0x8, addend: 0x0, symName: __ZNSt3__116reverse_iteratorINS0_IP10posChangedEEEC1B8ue170006ES3_, symObjAddr: 0x3984, symBinAddr: 0x10000AB84, symSize: 0x3C }
  - { offsetInCU: 0x8A42, offset: 0x15265, size: 0x8, addend: 0x0, symName: __ZNSt3__116reverse_iteratorINS0_IP10posChangedEEEppB8ue170006Ev, symObjAddr: 0x3A44, symBinAddr: 0x10000AC44, symSize: 0x30 }
  - { offsetInCU: 0x8A66, offset: 0x15289, size: 0x8, addend: 0x0, symName: __ZNKSt3__116reverse_iteratorINS0_IP10posChangedEEE4baseB8ue170006Ev, symObjAddr: 0x3A74, symBinAddr: 0x10000AC74, symSize: 0x24 }
  - { offsetInCU: 0x8A8F, offset: 0x152B2, size: 0x8, addend: 0x0, symName: __ZNSt3__119__to_address_helperINS_16reverse_iteratorINS1_IP10posChangedEEEEvE6__callB8ue170006ERKS5_, symObjAddr: 0x3A98, symBinAddr: 0x10000AC98, symSize: 0x38 }
  - { offsetInCU: 0x8AB1, offset: 0x152D4, size: 0x8, addend: 0x0, symName: __ZNKSt3__116reverse_iteratorINS0_IP10posChangedEEEptB8ue170006Ev, symObjAddr: 0x3AD0, symBinAddr: 0x10000ACD0, symSize: 0x24 }
  - { offsetInCU: 0x8AD5, offset: 0x152F8, size: 0x8, addend: 0x0, symName: __ZNKSt3__116reverse_iteratorINS0_IP10posChangedEEEdeB8ue170006Ev, symObjAddr: 0x3AF4, symBinAddr: 0x10000ACF4, symSize: 0x34 }
  - { offsetInCU: 0x8B07, offset: 0x1532A, size: 0x8, addend: 0x0, symName: __ZNSt3__116reverse_iteratorIP10posChangedEmmB8ue170006Ev, symObjAddr: 0x3B28, symBinAddr: 0x10000AD28, symSize: 0x20 }
  - { offsetInCU: 0x8B2B, offset: 0x1534E, size: 0x8, addend: 0x0, symName: __ZNSt3__116reverse_iteratorINS0_IP10posChangedEEEC2B8ue170006ES3_, symObjAddr: 0x3B48, symBinAddr: 0x10000AD48, symSize: 0x2C }
  - { offsetInCU: 0x8B61, offset: 0x15384, size: 0x8, addend: 0x0, symName: __ZNSt3__116reverse_iteratorIP10posChangedEC2B8ue170006ES2_, symObjAddr: 0x3B74, symBinAddr: 0x10000AD74, symSize: 0x28 }
  - { offsetInCU: 0x8B97, offset: 0x153BA, size: 0x8, addend: 0x0, symName: __ZNSt3__114__split_bufferI10posChangedRNS_9allocatorIS1_EEED2Ev, symObjAddr: 0x3B9C, symBinAddr: 0x10000AD9C, symSize: 0x8C }
  - { offsetInCU: 0x8BC1, offset: 0x153E4, size: 0x8, addend: 0x0, symName: __ZNSt3__114__split_bufferI10posChangedRNS_9allocatorIS1_EEE5clearB8ue170006Ev, symObjAddr: 0x3C28, symBinAddr: 0x10000AE28, symSize: 0x28 }
  - { offsetInCU: 0x8BE5, offset: 0x15408, size: 0x8, addend: 0x0, symName: __ZNKSt3__114__split_bufferI10posChangedRNS_9allocatorIS1_EEE8capacityB8ue170006Ev, symObjAddr: 0x3C84, symBinAddr: 0x10000AE50, symSize: 0x40 }
  - { offsetInCU: 0x8C09, offset: 0x1542C, size: 0x8, addend: 0x0, symName: __ZNSt3__114__split_bufferI10posChangedRNS_9allocatorIS1_EEE17__destruct_at_endB8ue170006EPS1_, symObjAddr: 0x3CC4, symBinAddr: 0x10000AE90, symSize: 0x2C }
  - { offsetInCU: 0x8C3B, offset: 0x1545E, size: 0x8, addend: 0x0, symName: __ZNSt3__114__split_bufferI10posChangedRNS_9allocatorIS1_EEE17__destruct_at_endB8ue170006EPS1_NS_17integral_constantIbLb0EEE, symObjAddr: 0x3CF0, symBinAddr: 0x10000AEBC, symSize: 0x80 }
  - { offsetInCU: 0x8C79, offset: 0x1549C, size: 0x8, addend: 0x0, symName: __ZNKSt3__114__split_bufferI10posChangedRNS_9allocatorIS1_EEE9__end_capB8ue170006Ev, symObjAddr: 0x3DB0, symBinAddr: 0x10000AF3C, symSize: 0x28 }
  - { offsetInCU: 0x8C9D, offset: 0x154C0, size: 0x8, addend: 0x0, symName: __ZNKSt3__117__compressed_pairIP10posChangedRNS_9allocatorIS1_EEE5firstB8ue170006Ev, symObjAddr: 0x3DD8, symBinAddr: 0x10000AF64, symSize: 0x24 }
  - { offsetInCU: 0x4768, offset: 0x19CD8, size: 0x8, addend: 0x0, symName: __Z7growing4body, symObjAddr: 0x0, symBinAddr: 0x10000AF88, symSize: 0x29C }
...
